
a.out:     file format elf64-littleriscv

Contents of section .interp:
 10238 2f6c6962 2f6c642d 6c696e75 782d7269  /lib/ld-linux-ri
 10248 73637636 342d6c70 3634642e 736f2e31  scv64-lp64d.so.1
 10258 00                                   .               
Contents of section .note.ABI-tag:
 1025c 04000000 10000000 01000000 474e5500  ............GNU.
 1026c 00000000 04000000 0f000000 00000000  ................
Contents of section .hash:
 10280 01000000 03000000 02000000 00000000  ................
 10290 00000000 01000000                    ........        
Contents of section .gnu.hash:
 10298 02000000 01000000 01000000 06000000  ................
 102a8 00000001 00400001 01000000 00000000  .....@..........
 102b8 2e4e3df6 197e0a87                    .N=..~..        
Contents of section .dynsym:
 102c0 00000000 00000000 00000000 00000000  ................
 102d0 00000000 00000000 01000000 12000000  ................
 102e0 a0030100 00000000 00000000 00000000  ................
 102f0 28000000 1000f1ff 00280100 00000000  (........(......
 10300 00000000 00000000                    ........        
Contents of section .dynstr:
 10308 005f5f6c 6962635f 73746172 745f6d61  .__libc_start_ma
 10318 696e006c 6962632e 736f2e36 00474c49  in.libc.so.6.GLI
 10328 42435f32 2e323700 5f5f676c 6f62616c  BC_2.27.__global
 10338 5f706f69 6e746572 2400               _pointer$.      
Contents of section .gnu.version:
 10342 00000200 0100                        ......          
Contents of section .gnu.version_r:
 10348 01000100 13000000 10000000 00000000  ................
 10358 87919606 00000200 1d000000 00000000  ................
Contents of section .rela.plt:
 10368 10200100 00000000 05000000 01000000  . ..............
 10378 00000000 00000000                    ........        
Contents of section .plt:
 10380 97230000 3303c341 03be03c8 130343fd  .#..3..A......C.
 10390 938203c8 13531300 83b28200 67000e00  .....S......g...
 103a0 172e0000 033e0ec7 67030e00 13000000  .....>..g.......
Contents of section .text:
 103b0 ef00e002 aa871705 00001305 a51b8265  ...............e
 103c0 30001371 01ff9706 00009386 26261707  0..q........&&..
 103d0 00001307 272b0a88 eff09ffc 02909721  ....'+.........!
 103e0 00009381 21428280 00004965 49679307  ....!B....IeIg..
 103f0 05001307 07006308 f7009307 000081c7  ......c.........
 10400 13050500 82878280 49659307 05004967  ........Ie....Ig
 10410 93050700 9d8d93d7 3540fd91 be958585  ........5@......
 10420 99c59307 000081c7 13050500 82878280  ................
 10430 411122e0 83c70183 06e491e7 eff0fffa  A.".............
 10440 85472388 f182a260 02644101 82806dbf  .G#....`.dA...m.
 10450 130101fe 233c8100 13040102 2334a4fe  ....#<......#4..
 10460 2330b4fe 033784fe 833704fe b307f700  #0...7...7......
 10470 13850700 03348101 13010102 67800000  .....4......g...
 10480 130101fe 233c8100 13040102 2334a4fe  ....#<......#4..
 10490 2330b4fe 033784fe 833704fe b307f740  #0...7...7.....@
 104a0 13850700 03348101 13010102 67800000  .....4......g...
 104b0 130101fe 233c8100 13040102 2726a4fe  ....#<......'&..
 104c0 2724b4fe 0727c4fe 872784fe d377f700  '$...'...'...w..
 104d0 5385f720 03348101 13010102 67800000  S.. .4......g...
 104e0 130101fe 233c8100 13040102 2726a4fe  ....#<......'&..
 104f0 2724b4fe 0727c4fe 872784fe d377f708  '$...'...'...w..
 10500 5385f720 03348101 13010102 67800000  S.. .4......g...
 10510 130101fe 233c8100 13040102 2726a4fe  ....#<......'&..
 10520 2724b4fe 0727c4fe 872784fe d377f710  '$...'...'...w..
 10530 5385f720 03348101 13010102 67800000  S.. .4......g...
 10540 130101fe 233c8100 13040102 2726a4fe  ....#<......'&..
 10550 2724b4fe 0727c4fe 872784fe d377f718  '$...'...'...w..
 10560 5385f720 03348101 13010102 67800000  S.. .4......g...
 10570 130101fb 23341104 23308104 13040105  ....#4..#0......
 10580 b7170000 93874702 2334f4fe b7170000  ......G.#4......
 10590 93878790 2330f4fe 833504fe 033584fe  ....#0...5...5..
 105a0 eff01feb 233ca4fc 833504fe 033584fe  ....#<...5...5..
 105b0 eff01fed 2338a4fc b7070100 87a74768  ....#8........Gh
 105c0 2726f4fc b7070100 87a78768 2724f4fc  '&.........h'$..
 105d0 872584fc 0725c4fc eff09fed 2722a4fc  .%...%......'"..
 105e0 872584fc 0725c4fc eff09fef 2720a4fc  .%...%......' ..
 105f0 872584fc 0725c4fc eff09ff1 272ea4fa  .%...%......'...
 10600 872584fc 0725c4fc eff09ff3 272ca4fa  .%...%......',..
 10610 93070000 13850700 83308104 03340104  .........0...4..
 10620 13010105 67800000 397122f8 4af01714  ....g...9q".J...
 10630 00001304 247e1719 00001309 297e3309  ....$~......)~3.
 10640 894006fc 26f44eec 52e856e4 13593940  .@..&.N.R.V..Y9@
 10650 630f0900 aa892e8a b28a8144 1c605686  c..........D.`V.
 10660 d2854e85 85048297 2104e319 99fee270  ..N.....!......p
 10670 4274a274 0279e269 426aa26a 21618280  Bt.t.y.iBj.j!a..
 10680 8280                                 ..              
Contents of section .rodata:
 10684 94874541 10069e3f                    ..EA...?        
Contents of section .eh_frame_hdr:
 1068c 011b033b 10000000 01000000 24fdffff  ...;........$...
 1069c 28000000                             (...            
Contents of section .eh_frame:
 106a0 10000000 00000000 037a5200 017c0101  .........zR..|..
 106b0 1b0d0200 10000000 18000000 f4fcffff  ................
 106c0 2e000000 00070100 00000000           ............    
Contents of section .preinit_array:
 11e08 de030100 00000000                    ........        
Contents of section .init_array:
 11e10 4e040100 00000000                    N.......        
Contents of section .fini_array:
 11e18 30040100 00000000                    0.......        
Contents of section .dynamic:
 11e20 01000000 00000000 13000000 00000000  ................
 11e30 20000000 00000000 081e0100 00000000   ...............
 11e40 21000000 00000000 08000000 00000000  !...............
 11e50 19000000 00000000 101e0100 00000000  ................
 11e60 1b000000 00000000 08000000 00000000  ................
 11e70 1a000000 00000000 181e0100 00000000  ................
 11e80 1c000000 00000000 08000000 00000000  ................
 11e90 04000000 00000000 80020100 00000000  ................
 11ea0 f5feff6f 00000000 98020100 00000000  ...o............
 11eb0 05000000 00000000 08030100 00000000  ................
 11ec0 06000000 00000000 c0020100 00000000  ................
 11ed0 0a000000 00000000 3a000000 00000000  ........:.......
 11ee0 0b000000 00000000 18000000 00000000  ................
 11ef0 15000000 00000000 00000000 00000000  ................
 11f00 03000000 00000000 00200100 00000000  ......... ......
 11f10 02000000 00000000 18000000 00000000  ................
 11f20 14000000 00000000 07000000 00000000  ................
 11f30 17000000 00000000 68030100 00000000  ........h.......
 11f40 07000000 00000000 68030100 00000000  ........h.......
 11f50 08000000 00000000 18000000 00000000  ................
 11f60 09000000 00000000 18000000 00000000  ................
 11f70 feffff6f 00000000 48030100 00000000  ...o....H.......
 11f80 ffffff6f 00000000 01000000 00000000  ...o............
 11f90 f0ffff6f 00000000 42030100 00000000  ...o....B.......
 11fa0 00000000 00000000 00000000 00000000  ................
 11fb0 00000000 00000000 00000000 00000000  ................
 11fc0 00000000 00000000 00000000 00000000  ................
 11fd0 00000000 00000000 00000000 00000000  ................
 11fe0 00000000 00000000 00000000 00000000  ................
 11ff0 00000000 00000000 00000000 00000000  ................
Contents of section .got:
 12000 ffffffff ffffffff 00000000 00000000  ................
 12010 80030100 00000000 201e0100 00000000  ........ .......
Contents of section .sdata:
 12020 01000200 00000000 00000000 00000000  ................
Contents of section .comment:
 0000 4743433a 2028474e 55292031 312e312e  GCC: (GNU) 11.1.
 0010 3000                                 0.              
Contents of section .debug_aranges:
 0000 2c000000 02000000 00000800 00000000  ,...............
 0010 b0030100 00000000 38000000 00000000  ........8.......
 0020 00000000 00000000 00000000 00000000  ................
 0030 1c000000 02002800 00000800 00000000  ......(.........
 0040 00000000 00000000 00000000 00000000  ................
 0050 1c000000 0200d904 00000800 00000000  ................
 0060 00000000 00000000 00000000 00000000  ................
 0070 2c000000 02001a05 00000800 00000000  ,...............
 0080 28060100 00000000 5a000000 00000000  (.......Z.......
 0090 00000000 00000000 00000000 00000000  ................
Contents of section .debug_info:
 0000 24000000 05000108 00000000 01000000  $...............
 0010 00b00301 00000000 00420000 00000800  .........B......
 0020 00004800 00000180 ad040000 05000108  ..H.............
 0030 14000000 0d180200 001d5900 00001900  ..........Y.....
 0040 00009600 00000401 085f0100 00040207  ........._......
 0050 ba010000 04040716 01000004 08071101  ................
 0060 00000401 06610100 00052f01 00000126  .....a..../....&
 0070 171e0000 00040205 a0000000 05950000  ................
 0080 0001281c 25000000 05000300 00012914  ..(.%.........).
 0090 6c000000 0e040569 6e740005 70000000  l......int..p...
 00a0 012a162c 00000004 08050301 00000f08  .*.,............
 00b0 04010868 01000005 02030000 021a1360  ...h...........`
 00c0 00000005 31010000 03181341 00000005  ....1......A....
 00d0 97000000 03191454 00000005 72000000  .......T....r...
 00e0 031a1473 00000005 d0000000 042112b3  ...s.........!..
 00f0 00000010 0c04da04 09000100 00087601  ..............v.
 0100 000004dc 040ebf00 00000008 8c010000  ................
 0110 04dd040e bf000000 04080402 000004de  ................
 0120 040ebf00 00000800 11570300 0004df04  .........W......
 0130 03cb0000 00040807 0c010000 09880000  ................
 0140 00240100 000a3300 00000300 040805fe  .$....3.........
 0150 00000004 08044c01 00000410 04470100  ......L......G..
 0160 0012f601 0000091e 10860000 00055301  ..............S.
 0170 0000051c 1c250000 000b6203 00001006  .....%....b.....
 0180 b2780100 00061403 000006b4 05450100  .x...........E..
 0190 000006b2 01000006 b50a7d01 00000200  ..........}.....
 01a0 03510100 00098800 00008d01 00000a33  .Q.............3
 01b0 0000000d 00015101 0000028d 01000007  ......Q.........
 01c0 1e030000 03970100 00019701 000002a1  ................
 01d0 01000007 6b030000 03ab0100 0001ab01  ....k...........
 01e0 000002b5 01000007 cd010000 03bf0100  ................
 01f0 0001bf01 000002c9 01000007 e9010000  ................
 0200 03d30100 0001d301 000002dd 0100000b  ................
 0210 4b030000 1007f228 02000006 c5000000  K......(........
 0220 07f40545 01000000 06f70200 0007f50f  ...E............
 0230 bb030000 02063901 000007f6 14a10300  ......9.........
 0240 0004066d 01000007 f9133c04 00000800  ...m......<.....
 0250 03e70100 0001e701 0000022d 02000013  ...........-....
 0260 7f010000 1c070101 088c0200 00089c01  ................
 0270 00000703 01054501 00000008 e0000000  ......E.........
 0280 0704010f bb030000 02087b00 00000705  ..........{.....
 0290 010eb300 00000408 a8010000 07060115  ................
 02a0 22040000 0808b700 00000707 010eb300  "...............
 02b0 00001800 03370200 00013702 00000291  .....7....7.....
 02c0 02000007 61000000 039b0200 00019b02  ....a...........
 02d0 000002a5 02000007 aa000000 03af0200  ................
 02e0 0001af02 000002b9 02000007 54000000  ............T...
 02f0 03c30200 0001c302 000002cd 02000007  ................
 0300 f2000000 03d70200 0001d702 000002e1  ................
 0310 02000007 89000000 03eb0200 0001eb02  ................
 0320 000002f5 02000007 0b020000 03ff0200  ................
 0330 0001ff02 00000209 03000001 78010000  ............x...
 0340 02130300 00019c01 0000021d 03000001  ................
 0350 b0010000 02270300 0001c401 00000231  .....'.........1
 0360 03000001 d8010000 023b0300 00012802  .........;....(.
 0370 00000245 03000001 8c020000 024f0300  ...E.........O..
 0380 0001a002 00000259 03000001 b4020000  .......Y........
 0390 02630300 0001c802 0000026d 03000001  .c.........m....
 03a0 dc020000 02770300 0001f002 00000281  .....w..........
 03b0 03000001 04030000 028b0300 0005df01  ................
 03c0 0000071e 12b30000 000b3a01 00000407  ..........:.....
 03d0 1fbb0300 00069501 00000721 0f950300  ...........!....
 03e0 00000005 0a030000 077b12a7 00000014  .........{......
 03f0 1007da05 f2030000 0c360300 00dc0af2  .........6......
 0400 0300000c 23010000 dd0b0204 00000c2a  ....#..........*
 0410 030000de 0b120400 0000099b 00000002  ................
 0420 0400000a 33000000 0f0009a7 00000012  ....3...........
 0430 0400000a 33000000 070009b3 00000022  ....3.........."
 0440 0400000a 33000000 03000ba9 01000010  ....3...........
 0450 07d83c04 000006ea 00000007 df09c703  ..<.............
 0460 00000000 091e0000 004c0400 000a3300  .........L....3.
 0470 00000700 040102d9 01000015 2008420e  ............ .B.
 0480 84040000 06db0000 0008440e 00010000  ..........D.....
 0490 00064201 00000845 08140100 000c0679  ..B....E.......y
 04a0 03000008 460b8904 00001000 03530400  ....F........S..
 04b0 00098f00 00009904 00000a33 00000003  ...........3....
 04c0 00164103 00000847 03840400 00040903  ..A....G........
 04d0 5c020100 00000000 003d0000 00050001  \........=......
 04e0 08390100 00011802 00001d24 01000019  .9.........$....
 04f0 0000000c 01000002 7e030000 01170b3b  ........~......;
 0500 00000009 03202001 00000000 00030405  .....  .........
 0510 696e7400 04340000 00005401 00000500  int..4....T.....
 0520 01086e01 0000078d 0300001d 20010000  ..n......... ...
 0530 19000000 28060100 00000000 5a000000  ....(.......Z...
 0540 00000000 42010000 01080503 01000008  ....B...........
 0550 85040000 02d11746 00000009 35000000  .......F....5...
 0560 01080711 0100000a 0405696e 74000108  ..........int...
 0570 05fe0000 00011004 47010000 0b6d0000  ........G....m..
 0580 006d0000 000c0002 72000000 0d870000  .m......r.......
 0590 00034d00 00000387 00000003 87000000  ..M.............
 05a0 00028c00 00000291 00000001 01086801  ..............h.
 05b0 00000672 0400002d 62000000 06c00400  ...r...-b.......
 05c0 002f6200 00000e91 04000001 60018006  ./b.........`...
 05d0 01000000 00000200 00000000 0000019c  ................
 05e0 0fab0400 00014401 28060100 00000000  ......D.(.......
 05f0 58000000 00000000 019c04a1 04000016  X...............
 0600 4d000000 0c000000 04bb0400 00238700  M............#..
 0610 00003600 0000048c 04000030 87000000  ..6........0....
 0620 73000000 10a60400 00015710 41000000  s.........W.A...
 0630 b0000000 11500601 00000000 001e0000  .....P..........
 0640 00000000 00126900 01580f35 000000c4  ......i..X.5....
 0650 00000013 68060100 00000000 05015a02  ....h.........Z.
 0660 83000501 5b028400 05015c02 85000000  ....[.....\.....
 0670 0000                                 ..              
Contents of section .debug_abbrev:
 0000 01110010 17110112 0f030e1b 0e250e13  .............%..
 0010 05000000 010f000b 21084913 00000237  ........!.I....7
 0020 00491300 00032600 49130000 0424000b  .I....&.I....$..
 0030 0b3e0b03 0e000005 1600030e 3a0b3b0b  .>..........:.;.
 0040 390b4913 0000060d 00030e3a 0b3b0b39  9.I........:.;.9
 0050 0b491338 0b000007 1300030e 3c190000  .I.8........<...
 0060 080d0003 0e3a0b3b 05390b49 13380b00  .....:.;.9.I.8..
 0070 00090101 49130113 00000a21 0049132f  ....I......!.I./
 0080 0b00000b 1301030e 0b0b3a0b 3b0b3921  ..........:.;.9!
 0090 08011300 000c0d00 030e3a21 073b0b39  ..........:!.;.9
 00a0 0b491300 000d1101 250e130b 031f1b1f  .I......%.......
 00b0 10170000 0e24000b 0b3e0b03 0800000f  .....$...>......
 00c0 0f000b0b 00001013 010b0b3a 0b3b0539  ...........:.;.9
 00d0 0b011300 00111600 030e3a0b 3b05390b  ..........:.;.9.
 00e0 49130000 12340003 0e3a0b3b 0b390b49  I....4...:.;.9.I
 00f0 133f1900 00131301 030e0b0b 3a0b3b05  .?..........:.;.
 0100 390b0113 00001417 010b0b3a 0b3b0b39  9..........:.;.9
 0110 0b011300 00151301 0b0b3a0b 3b0b390b  ..........:.;.9.
 0120 01130000 16340003 0e3a0b3b 0b390b49  .....4...:.;.9.I
 0130 1388010b 02180000 00011101 250e130b  ............%...
 0140 031f1b1f 10170000 02340003 0e3a0b3b  .........4...:.;
 0150 0b390b49 133f1902 18000003 24000b0b  .9.I.?......$...
 0160 3e0b0308 00000426 00491300 00000124  >......&.I.....$
 0170 000b0b3e 0b030e00 00020f00 0b210849  ...>.........!.I
 0180 13000003 05004913 00000405 00030e3a  ......I........:
 0190 21013b21 c400390b 49130217 00000549  !.;!..9.I......I
 01a0 0002187e 18000006 3400030e 3a21013b  ...~....4...:!.;
 01b0 0b39210f 49133f19 3c190000 07110125  .9!.I.?.<......%
 01c0 0e130b03 1f1b1f11 01120710 17000008  ................
 01d0 1600030e 3a0b3b0b 390b4913 00000926  ....:.;.9.I....&
 01e0 00491300 000a2400 0b0b3e0b 03080000  .I....$...>.....
 01f0 0b010149 13011300 000c2100 00000d15  ...I......!.....
 0200 01271901 1300000e 2e003f19 030e3a0b  .'........?...:.
 0210 3b0b390b 27191101 12074018 7a190000  ;.9.'.....@.z...
 0220 0f2e013f 19030e3a 0b3b0b39 0b271911  ...?...:.;.9.'..
 0230 01120740 187a1900 00103400 030e3a0b  ...@.z....4...:.
 0240 3b0b390b 49130217 0000110b 01110112  ;.9.I...........
 0250 07000012 34000308 3a0b3b0b 390b4913  ....4...:.;.9.I.
 0260 02170000 1348017d 01000000           .....H.}....    
Contents of section .debug_line:
 0000 92000000 05000800 2e000000 010101fb  ................
 0010 0e0d0001 01010100 00000100 00010101  ................
 0020 1f020000 00000000 00000201 1f020f02  ................
 0030 11000000 00110000 00010009 02b00301  ................
 0040 00000000 00033101 03010904 00010302  ......1.........
 0050 09020001 03010908 00010301 09020001  ................
 0060 03010902 00010301 09040001 03010908  ................
 0070 00010301 09080001 03020902 00010301  ................
 0080 09040001 030c0902 00010302 09080001  ................
 0090 09020000 01017200 00000500 08006a00  ......r.......j.
 00a0 00000101 01fb0e0d 00010101 01000000  ................
 00b0 01000001 01011f07 19000000 64000000  ............d...
 00c0 72000000 7a000000 81000000 a1000000  r...z...........
 00d0 b1000000 02011f02 0f0a5900 000000c7  ..........Y.....
 00e0 00000001 cf000000 02dd0000 0002ec00  ................
 00f0 000003f2 00000002 fd000000 04060100  ................
 0100 00055900 0000000b 01000006 32000000  ..Y.........2...
 0110 05000800 2a000000 010101fb 0e0d0001  ....*...........
 0120 01010100 00000100 00010101 1f011900  ................
 0130 00000201 1f020f02 24010000 00240100  ........$....$..
 0140 0000fe00 00000500 08003300 00000101  ..........3.....
 0150 01fb0e0d 00010101 01000000 01000001  ................
 0160 01011f02 19000000 2b010000 02011f02  ........+.......
 0170 0f032001 00000020 01000000 67010000  .. .... ....g...
 0180 01050100 09022806 01000000 000003c4  ......(.........
 0190 00010503 03120900 00010501 06036e09  ..............n.
 01a0 00000105 28031209 06000105 01036e09  ....(.........n.
 01b0 14000105 28031209 0a000105 03060301  ....(...........
 01c0 09040001 05080300 09000001 05180300  ................
 01d0 09000001 050f0603 00090a00 01050700  ................
 01e0 02040306 03010902 00010508 00020403  ................
 01f0 06030009 00000105 21000204 03037f09  ........!.......
 0200 08000105 08000204 03030109 02000105  ................
 0210 21000204 0306037f 09020001 05180002  !...............
 0220 04030300 09000001 05010603 02090600  ................
 0230 01060307 09120001 030a0900 00010902  ................
 0240 00000101                             ....            
Contents of section .debug_frame:
 0000 0c000000 ffffffff 0300017c 010d0200  ...........|....
 0010 3c000000 00000000 28060100 00000000  <.......(.......
 0020 58000000 00000000 420e4044 88049208  X.......B.@D....
 0030 5e810289 06930a94 0c950e64 c142c842  ^..........d.B.B
 0040 c942d242 d342d442 d5420e00 00000000  .B.B.B.B.B......
 0050 14000000 00000000 80060100 00000000  ................
 0060 02000000 00000000                    ........        
Contents of section .debug_str:
 0000 73746172 742e5300 2f686f6d 652f686f  start.S./home/ho
 0010 68616963 6f6e6774 6875616e 2f476974  haicongthuan/Git
 0020 4875622f 72697363 762d676e 752d746f  Hub/riscv-gnu-to
 0030 6f6c6368 61696e2f 72697363 762d676c  olchain/riscv-gl
 0040 6962632f 63737500 474e5520 41532032  ibc/csu.GNU AS 2
 0050 2e333700 736f636b 61646472 5f69736f  .37.sockaddr_iso
 0060 00736f63 6b616464 725f696e 61727000  .sockaddr_inarp.
 0070 5f5f7569 6e743332 5f740073 696e365f  __uint32_t.sin6_
 0080 666c6f77 696e666f 00736f63 6b616464  flowinfo.sockadd
 0090 725f756e 005f5f75 696e7431 365f7400  r_un.__uint16_t.
 00a0 73686f72 7420696e 7400736f 636b6164  short int.sockad
 00b0 64725f69 70780073 696e365f 73636f70  dr_ipx.sin6_scop
 00c0 655f6964 0073696e 5f66616d 696c7900  e_id.sin_family.
 00d0 456c6636 345f576f 7264006e 68647200  Elf64_Word.nhdr.
 00e0 73696e36 5f706f72 74005f5f 696e365f  sin6_port.__in6_
 00f0 7500736f 636b6164 64725f6e 73006c6f  u.sockaddr_ns.lo
 0100 6e67206c 6f6e6720 696e7400 6c6f6e67  ng long int.long
 0110 206c6f6e 6720756e 7369676e 65642069   long unsigned i
 0120 6e74005f 5f75365f 61646472 3136005f  nt.__u6_addr16._
 0130 5f75696e 74385f74 0073696e 5f616464  _uint8_t.sin_add
 0140 72006e61 6d65006c 6f6e6720 646f7562  r.name.long doub
 0150 6c650073 615f6661 6d696c79 5f740075  le.sa_family_t.u
 0160 6e736967 6e656420 63686172 0073696e  nsigned char.sin
 0170 5f7a6572 6f006e5f 6e616d65 737a0073  _zero.n_namesz.s
 0180 6f636b61 6464725f 696e3600 6e5f6465  ockaddr_in6.n_de
 0190 7363737a 00735f61 64647200 73696e36  scsz.s_addr.sin6
 01a0 5f66616d 696c7900 73696e36 5f616464  _family.sin6_add
 01b0 72007361 5f646174 61007368 6f727420  r.sa_data.short 
 01c0 756e7369 676e6564 20696e74 00736f63  unsigned int.soc
 01d0 6b616464 725f646c 005f426f 6f6c0069  kaddr_dl._Bool.i
 01e0 6e5f6164 64725f74 00736f63 6b616464  n_addr_t.sockadd
 01f0 725f656f 6e005f5f 74687265 61645f73  r_eon.__thread_s
 0200 656c6600 6e5f7479 70650073 6f636b61  elf.n_type.socka
 0210 6464725f 78323500 474e5520 43313120  ddr_x25.GNU C11 
 0220 31312e31 2e30202d 6d636d6f 64656c3d  11.1.0 -mcmodel=
 0230 6d65646c 6f77202d 6d74756e 653d726f  medlow -mtune=ro
 0240 636b6574 202d6d61 7263683d 72763634  cket -march=rv64
 0250 696d6166 6463202d 6d616269 3d6c7036  imafdc -mabi=lp6
 0260 3464202d 6d617263 683d7276 3634696d  4d -march=rv64im
 0270 61666463 202d6720 2d4f3220 2d737464  afdc -g -O2 -std
 0280 3d676e75 3131202d 66676e75 38392d69  =gnu11 -fgnu89-i
 0290 6e6c696e 65202d66 6d657267 652d616c  nline -fmerge-al
 02a0 6c2d636f 6e737461 6e747320 2d66726f  l-constants -fro
 02b0 756e6469 6e672d6d 61746820 2d666d61  unding-math -fma
 02c0 74682d65 72726e6f 202d666e 6f2d7374  th-errno -fno-st
 02d0 61636b2d 70726f74 6563746f 72202d66  ack-protector -f
 02e0 746c732d 6d6f6465 6c3d696e 69746961  tls-model=initia
 02f0 6c2d6578 65630073 696e5f70 6f727400  l-exec.sin_port.
 0300 5f5f696e 7433325f 7400696e 5f706f72  __int32_t.in_por
 0310 745f7400 73615f66 616d696c 7900736f  t_t.sa_family.so
 0320 636b6164 64725f61 74005f5f 75365f61  ckaddr_at.__u6_a
 0330 64647233 32005f5f 75365f61 64647238  ddr32.__u6_addr8
 0340 005f5f61 62695f74 61670073 6f636b61  .__abi_tag.socka
 0350 6464725f 696e0045 6c663634 5f4e6864  ddr_in.Elf64_Nhd
 0360 7200736f 636b6164 64720073 6f636b61  r.sockaddr.socka
 0370 6464725f 61783235 00646573 63005f49  ddr_ax25.desc._I
 0380 4f5f7374 64696e5f 75736564 00474e55  O_stdin_used.GNU
 0390 20433131 2031312e 312e3020 2d6d636d   C11 11.1.0 -mcm
 03a0 6f64656c 3d6d6564 6c6f7720 2d6d7475  odel=medlow -mtu
 03b0 6e653d72 6f636b65 74202d6d 61726368  ne=rocket -march
 03c0 3d727636 34696d61 66646320 2d6d6162  =rv64imafdc -mab
 03d0 693d6c70 36346420 2d6d6172 63683d72  i=lp64d -march=r
 03e0 76363469 6d616664 63202d67 202d4f32  v64imafdc -g -O2
 03f0 202d7374 643d676e 75313120 2d66676e   -std=gnu11 -fgn
 0400 7538392d 696e6c69 6e65202d 666d6572  u89-inline -fmer
 0410 67652d61 6c6c2d63 6f6e7374 616e7473  ge-all-constants
 0420 202d6672 6f756e64 696e672d 6d617468   -frounding-math
 0430 202d666d 6174682d 6572726e 6f202d66   -fmath-errno -f
 0440 50494320 2d666e6f 2d737461 636b2d70  PIC -fno-stack-p
 0450 726f7465 63746f72 202d6674 6c732d6d  rotector -ftls-m
 0460 6f64656c 3d696e69 7469616c 2d657865  odel=initial-exe
 0470 63005f5f 696e6974 5f617272 61795f73  c.__init_array_s
 0480 74617274 0073697a 655f7400 656e7670  tart.size_t.envp
 0490 005f5f6c 6962635f 6373755f 66696e69  .__libc_csu_fini
 04a0 00617267 63007369 7a65005f 5f6c6962  .argc.size.__lib
 04b0 635f6373 755f696e 69740061 72677600  c_csu_init.argv.
 04c0 5f5f696e 69745f61 72726179 5f656e64  __init_array_end
 04d0 00                                   .               
Contents of section .debug_line_str:
 0000 2e2e2f73 79736465 70732f72 69736376  ../sysdeps/riscv
 0010 00737461 72742e53 002f686f 6d652f68  .start.S./home/h
 0020 6f686169 636f6e67 74687561 6e2f4769  ohaicongthuan/Gi
 0030 74487562 2f726973 63762d67 6e752d74  tHub/riscv-gnu-t
 0040 6f6f6c63 6861696e 2f726973 63762d67  oolchain/riscv-g
 0050 6c696263 2f637375 00616269 2d6e6f74  libc/csu.abi-not
 0060 652e6300 2e2e2f70 6f736978 2f626974  e.c.../posix/bit
 0070 73002e2e 2f626974 73002e2e 2f656c66  s.../bits.../elf
 0080 002e2e2f 73797364 6570732f 756e6978  .../sysdeps/unix
 0090 2f737973 762f6c69 6e75782f 62697473  /sysv/linux/bits
 00a0 002e2e2f 696e6574 2f6e6574 696e6574  .../inet/netinet
 00b0 002e2e2f 73797364 6570732f 72697363  .../sysdeps/risc
 00c0 762f6e70 746c0074 79706573 2e680073  v/nptl.types.h.s
 00d0 7464696e 742d696e 746e2e68 00737464  tdint-intn.h.std
 00e0 696e742d 75696e74 6e2e6800 656c662e  int-uintn.h.elf.
 00f0 6800736f 636b6164 64722e68 00736f63  h.sockaddr.h.soc
 0100 6b65742e 6800696e 2e680074 6c732e68  ket.h.in.h.tls.h
 0110 00737461 7469632d 72656c6f 632e6300  .static-reloc.c.
 0120 656c662d 696e6974 2e63002f 6f70742f  elf-init.c./opt/
 0130 72697363 762f6c69 622f6763 632f7269  riscv/lib/gcc/ri
 0140 73637636 342d756e 6b6e6f77 6e2d6c69  scv64-unknown-li
 0150 6e75782d 676e752f 31312e31 2e302f69  nux-gnu/11.1.0/i
 0160 6e636c75 64650073 74646465 662e6800  nclude.stddef.h.
Contents of section .debug_loclists:
 0000 10010000 05000800 00000000 07280601  .............(..
 0010 00000000 005c0601 00000000 00015a07  .....\........Z.
 0020 5c060100 00000000 80060100 00000000  \...............
 0030 04a3015a 9f000728 06010000 0000005c  ...Z...(.......\
 0040 06010000 00000001 5b075c06 01000000  ........[.\.....
 0050 00006e06 01000000 00000164 076e0601  ..n........d.n..
 0060 00000000 00800601 00000000 0004a301  ................
 0070 5b9f0007 28060100 00000000 5c060100  [...(.......\...
 0080 00000000 015c075c 06010000 0000006e  .....\.\.......n
 0090 06010000 00000001 65076e06 01000000  ........e.n.....
 00a0 00008006 01000000 000004a3 015c9f00  .............\..
 00b0 07500601 00000000 00760601 00000000  .P.......v......
 00c0 00016200 07500601 00000000 005c0601  ..b..P.......\..
 00d0 00000000 0002309f 075c0601 00000000  ......0..\......
 00e0 00660601 00000000 00015907 66060100  .f........Y.f...
 00f0 00000000 68060100 00000000 03797f9f  ....h........y..
 0100 07680601 00000000 006e0601 00000000  .h.......n......
 0110 00015900                             ..Y.            

Disassembly of section .plt:

0000000000010380 <_PROCEDURE_LINKAGE_TABLE_>:
   10380:	00002397          	auipc	t2,0x2
   10384:	41c30333          	sub	t1,t1,t3
   10388:	c803be03          	ld	t3,-896(t2) # 12000 <__TMC_END__>
   1038c:	fd430313          	addi	t1,t1,-44
   10390:	c8038293          	addi	t0,t2,-896
   10394:	00135313          	srli	t1,t1,0x1
   10398:	0082b283          	ld	t0,8(t0)
   1039c:	000e0067          	jr	t3 # 1a000 <__global_pointer$+0x7800>

00000000000103a0 <__libc_start_main@plt>:
   103a0:	00002e17          	auipc	t3,0x2
   103a4:	c70e3e03          	ld	t3,-912(t3) # 12010 <__libc_start_main@GLIBC_2.27>
   103a8:	000e0367          	jalr	t1,t3
   103ac:	00000013          	nop

Disassembly of section .text:

00000000000103b0 <_start>:
   103b0:	02e000ef          	jal	ra,103de <load_gp>
   103b4:	87aa                	mv	a5,a0
   103b6:	00000517          	auipc	a0,0x0
   103ba:	1ba50513          	addi	a0,a0,442 # 10570 <main>
   103be:	6582                	ld	a1,0(sp)
   103c0:	0030                	addi	a2,sp,8
   103c2:	ff017113          	andi	sp,sp,-16
   103c6:	00000697          	auipc	a3,0x0
   103ca:	26268693          	addi	a3,a3,610 # 10628 <__libc_csu_init>
   103ce:	00000717          	auipc	a4,0x0
   103d2:	2b270713          	addi	a4,a4,690 # 10680 <__libc_csu_fini>
   103d6:	880a                	mv	a6,sp
   103d8:	fc9ff0ef          	jal	ra,103a0 <__libc_start_main@plt>
   103dc:	9002                	ebreak

00000000000103de <load_gp>:
   103de:	00002197          	auipc	gp,0x2
   103e2:	42218193          	addi	gp,gp,1058 # 12800 <__global_pointer$>
   103e6:	8082                	ret
	...

00000000000103ea <deregister_tm_clones>:
   103ea:	6549                	lui	a0,0x12
   103ec:	6749                	lui	a4,0x12
   103ee:	00050793          	mv	a5,a0
   103f2:	00070713          	mv	a4,a4
   103f6:	00f70863          	beq	a4,a5,10406 <deregister_tm_clones+0x1c>
   103fa:	00000793          	li	a5,0
   103fe:	c781                	beqz	a5,10406 <deregister_tm_clones+0x1c>
   10400:	00050513          	mv	a0,a0
   10404:	8782                	jr	a5
   10406:	8082                	ret

0000000000010408 <register_tm_clones>:
   10408:	6549                	lui	a0,0x12
   1040a:	00050793          	mv	a5,a0
   1040e:	6749                	lui	a4,0x12
   10410:	00070593          	mv	a1,a4
   10414:	8d9d                	sub	a1,a1,a5
   10416:	4035d793          	srai	a5,a1,0x3
   1041a:	91fd                	srli	a1,a1,0x3f
   1041c:	95be                	add	a1,a1,a5
   1041e:	8585                	srai	a1,a1,0x1
   10420:	c599                	beqz	a1,1042e <register_tm_clones+0x26>
   10422:	00000793          	li	a5,0
   10426:	c781                	beqz	a5,1042e <register_tm_clones+0x26>
   10428:	00050513          	mv	a0,a0
   1042c:	8782                	jr	a5
   1042e:	8082                	ret

0000000000010430 <__do_global_dtors_aux>:
   10430:	1141                	addi	sp,sp,-16
   10432:	e022                	sd	s0,0(sp)
   10434:	8301c783          	lbu	a5,-2000(gp) # 12030 <completed.0>
   10438:	e406                	sd	ra,8(sp)
   1043a:	e791                	bnez	a5,10446 <__do_global_dtors_aux+0x16>
   1043c:	fafff0ef          	jal	ra,103ea <deregister_tm_clones>
   10440:	4785                	li	a5,1
   10442:	82f18823          	sb	a5,-2000(gp) # 12030 <completed.0>
   10446:	60a2                	ld	ra,8(sp)
   10448:	6402                	ld	s0,0(sp)
   1044a:	0141                	addi	sp,sp,16
   1044c:	8082                	ret

000000000001044e <frame_dummy>:
   1044e:	bf6d                	j	10408 <register_tm_clones>

0000000000010450 <Add>:
   10450:	fe010113          	addi	sp,sp,-32
   10454:	00813c23          	sd	s0,24(sp)
   10458:	02010413          	addi	s0,sp,32
   1045c:	fea43423          	sd	a0,-24(s0)
   10460:	feb43023          	sd	a1,-32(s0)
   10464:	fe843703          	ld	a4,-24(s0)
   10468:	fe043783          	ld	a5,-32(s0)
   1046c:	00f707b3          	add	a5,a4,a5
   10470:	00078513          	mv	a0,a5
   10474:	01813403          	ld	s0,24(sp)
   10478:	02010113          	addi	sp,sp,32
   1047c:	00008067          	ret

0000000000010480 <Sub>:
   10480:	fe010113          	addi	sp,sp,-32
   10484:	00813c23          	sd	s0,24(sp)
   10488:	02010413          	addi	s0,sp,32
   1048c:	fea43423          	sd	a0,-24(s0)
   10490:	feb43023          	sd	a1,-32(s0)
   10494:	fe843703          	ld	a4,-24(s0)
   10498:	fe043783          	ld	a5,-32(s0)
   1049c:	40f707b3          	sub	a5,a4,a5
   104a0:	00078513          	mv	a0,a5
   104a4:	01813403          	ld	s0,24(sp)
   104a8:	02010113          	addi	sp,sp,32
   104ac:	00008067          	ret

00000000000104b0 <FP_Add>:
   104b0:	fe010113          	addi	sp,sp,-32
   104b4:	00813c23          	sd	s0,24(sp)
   104b8:	02010413          	addi	s0,sp,32
   104bc:	fea42627          	fsw	fa0,-20(s0)
   104c0:	feb42427          	fsw	fa1,-24(s0)
   104c4:	fec42707          	flw	fa4,-20(s0)
   104c8:	fe842787          	flw	fa5,-24(s0)
   104cc:	00f777d3          	fadd.s	fa5,fa4,fa5
   104d0:	20f78553          	fmv.s	fa0,fa5
   104d4:	01813403          	ld	s0,24(sp)
   104d8:	02010113          	addi	sp,sp,32
   104dc:	00008067          	ret

00000000000104e0 <FP_Sub>:
   104e0:	fe010113          	addi	sp,sp,-32
   104e4:	00813c23          	sd	s0,24(sp)
   104e8:	02010413          	addi	s0,sp,32
   104ec:	fea42627          	fsw	fa0,-20(s0)
   104f0:	feb42427          	fsw	fa1,-24(s0)
   104f4:	fec42707          	flw	fa4,-20(s0)
   104f8:	fe842787          	flw	fa5,-24(s0)
   104fc:	08f777d3          	fsub.s	fa5,fa4,fa5
   10500:	20f78553          	fmv.s	fa0,fa5
   10504:	01813403          	ld	s0,24(sp)
   10508:	02010113          	addi	sp,sp,32
   1050c:	00008067          	ret

0000000000010510 <FP_Mul>:
   10510:	fe010113          	addi	sp,sp,-32
   10514:	00813c23          	sd	s0,24(sp)
   10518:	02010413          	addi	s0,sp,32
   1051c:	fea42627          	fsw	fa0,-20(s0)
   10520:	feb42427          	fsw	fa1,-24(s0)
   10524:	fec42707          	flw	fa4,-20(s0)
   10528:	fe842787          	flw	fa5,-24(s0)
   1052c:	10f777d3          	fmul.s	fa5,fa4,fa5
   10530:	20f78553          	fmv.s	fa0,fa5
   10534:	01813403          	ld	s0,24(sp)
   10538:	02010113          	addi	sp,sp,32
   1053c:	00008067          	ret

0000000000010540 <FP_Div>:
   10540:	fe010113          	addi	sp,sp,-32
   10544:	00813c23          	sd	s0,24(sp)
   10548:	02010413          	addi	s0,sp,32
   1054c:	fea42627          	fsw	fa0,-20(s0)
   10550:	feb42427          	fsw	fa1,-24(s0)
   10554:	fec42707          	flw	fa4,-20(s0)
   10558:	fe842787          	flw	fa5,-24(s0)
   1055c:	18f777d3          	fdiv.s	fa5,fa4,fa5
   10560:	20f78553          	fmv.s	fa0,fa5
   10564:	01813403          	ld	s0,24(sp)
   10568:	02010113          	addi	sp,sp,32
   1056c:	00008067          	ret

0000000000010570 <main>:
   10570:	fb010113          	addi	sp,sp,-80
   10574:	04113423          	sd	ra,72(sp)
   10578:	04813023          	sd	s0,64(sp)
   1057c:	05010413          	addi	s0,sp,80
   10580:	000017b7          	lui	a5,0x1
   10584:	02478793          	addi	a5,a5,36 # 1024 <__abi_tag-0xf238>
   10588:	fef43423          	sd	a5,-24(s0)
   1058c:	000017b7          	lui	a5,0x1
   10590:	90878793          	addi	a5,a5,-1784 # 908 <__abi_tag-0xf954>
   10594:	fef43023          	sd	a5,-32(s0)
   10598:	fe043583          	ld	a1,-32(s0)
   1059c:	fe843503          	ld	a0,-24(s0)
   105a0:	eb1ff0ef          	jal	ra,10450 <Add>
   105a4:	fca43c23          	sd	a0,-40(s0)
   105a8:	fe043583          	ld	a1,-32(s0)
   105ac:	fe843503          	ld	a0,-24(s0)
   105b0:	ed1ff0ef          	jal	ra,10480 <Sub>
   105b4:	fca43823          	sd	a0,-48(s0)
   105b8:	000107b7          	lui	a5,0x10
   105bc:	6847a787          	flw	fa5,1668(a5) # 10684 <__libc_csu_fini+0x4>
   105c0:	fcf42627          	fsw	fa5,-52(s0)
   105c4:	000107b7          	lui	a5,0x10
   105c8:	6887a787          	flw	fa5,1672(a5) # 10688 <__libc_csu_fini+0x8>
   105cc:	fcf42427          	fsw	fa5,-56(s0)
   105d0:	fc842587          	flw	fa1,-56(s0)
   105d4:	fcc42507          	flw	fa0,-52(s0)
   105d8:	ed9ff0ef          	jal	ra,104b0 <FP_Add>
   105dc:	fca42227          	fsw	fa0,-60(s0)
   105e0:	fc842587          	flw	fa1,-56(s0)
   105e4:	fcc42507          	flw	fa0,-52(s0)
   105e8:	ef9ff0ef          	jal	ra,104e0 <FP_Sub>
   105ec:	fca42027          	fsw	fa0,-64(s0)
   105f0:	fc842587          	flw	fa1,-56(s0)
   105f4:	fcc42507          	flw	fa0,-52(s0)
   105f8:	f19ff0ef          	jal	ra,10510 <FP_Mul>
   105fc:	faa42e27          	fsw	fa0,-68(s0)
   10600:	fc842587          	flw	fa1,-56(s0)
   10604:	fcc42507          	flw	fa0,-52(s0)
   10608:	f39ff0ef          	jal	ra,10540 <FP_Div>
   1060c:	faa42c27          	fsw	fa0,-72(s0)
   10610:	00000793          	li	a5,0
   10614:	00078513          	mv	a0,a5
   10618:	04813083          	ld	ra,72(sp)
   1061c:	04013403          	ld	s0,64(sp)
   10620:	05010113          	addi	sp,sp,80
   10624:	00008067          	ret

0000000000010628 <__libc_csu_init>:
   10628:	7139                	addi	sp,sp,-64
   1062a:	f822                	sd	s0,48(sp)
   1062c:	f04a                	sd	s2,32(sp)
   1062e:	00001417          	auipc	s0,0x1
   10632:	7e240413          	addi	s0,s0,2018 # 11e10 <__frame_dummy_init_array_entry>
   10636:	00001917          	auipc	s2,0x1
   1063a:	7e290913          	addi	s2,s2,2018 # 11e18 <__do_global_dtors_aux_fini_array_entry>
   1063e:	40890933          	sub	s2,s2,s0
   10642:	fc06                	sd	ra,56(sp)
   10644:	f426                	sd	s1,40(sp)
   10646:	ec4e                	sd	s3,24(sp)
   10648:	e852                	sd	s4,16(sp)
   1064a:	e456                	sd	s5,8(sp)
   1064c:	40395913          	srai	s2,s2,0x3
   10650:	00090f63          	beqz	s2,1066e <__libc_csu_init+0x46>
   10654:	89aa                	mv	s3,a0
   10656:	8a2e                	mv	s4,a1
   10658:	8ab2                	mv	s5,a2
   1065a:	4481                	li	s1,0
   1065c:	601c                	ld	a5,0(s0)
   1065e:	8656                	mv	a2,s5
   10660:	85d2                	mv	a1,s4
   10662:	854e                	mv	a0,s3
   10664:	0485                	addi	s1,s1,1
   10666:	9782                	jalr	a5
   10668:	0421                	addi	s0,s0,8
   1066a:	fe9919e3          	bne	s2,s1,1065c <__libc_csu_init+0x34>
   1066e:	70e2                	ld	ra,56(sp)
   10670:	7442                	ld	s0,48(sp)
   10672:	74a2                	ld	s1,40(sp)
   10674:	7902                	ld	s2,32(sp)
   10676:	69e2                	ld	s3,24(sp)
   10678:	6a42                	ld	s4,16(sp)
   1067a:	6aa2                	ld	s5,8(sp)
   1067c:	6121                	addi	sp,sp,64
   1067e:	8082                	ret

0000000000010680 <__libc_csu_fini>:
   10680:	8082                	ret
