
a.out:     file format elf64-littleriscv

Contents of section .interp:
 10238 2f6c6962 2f6c642d 6c696e75 782d7269  /lib/ld-linux-ri
 10248 73637636 342d6c70 3634642e 736f2e31  scv64-lp64d.so.1
 10258 00                                   .               
Contents of section .note.ABI-tag:
 1025c 04000000 10000000 01000000 474e5500  ............GNU.
 1026c 00000000 04000000 0f000000 00000000  ................
Contents of section .hash:
 10280 01000000 03000000 02000000 00000000  ................
 10290 00000000 01000000                    ........        
Contents of section .gnu.hash:
 10298 02000000 01000000 01000000 06000000  ................
 102a8 00000001 00400001 01000000 00000000  .....@..........
 102b8 2e4e3df6 197e0a87                    .N=..~..        
Contents of section .dynsym:
 102c0 00000000 00000000 00000000 00000000  ................
 102d0 00000000 00000000 01000000 12000000  ................
 102e0 a0030100 00000000 00000000 00000000  ................
 102f0 28000000 1000f1ff 00280100 00000000  (........(......
 10300 00000000 00000000                    ........        
Contents of section .dynstr:
 10308 005f5f6c 6962635f 73746172 745f6d61  .__libc_start_ma
 10318 696e006c 6962632e 736f2e36 00474c49  in.libc.so.6.GLI
 10328 42435f32 2e323700 5f5f676c 6f62616c  BC_2.27.__global
 10338 5f706f69 6e746572 2400               _pointer$.      
Contents of section .gnu.version:
 10342 00000200 0100                        ......          
Contents of section .gnu.version_r:
 10348 01000100 13000000 10000000 00000000  ................
 10358 87919606 00000200 1d000000 00000000  ................
Contents of section .rela.plt:
 10368 10200100 00000000 05000000 01000000  . ..............
 10378 00000000 00000000                    ........        
Contents of section .plt:
 10380 97230000 3303c341 03be03c8 130343fd  .#..3..A......C.
 10390 938203c8 13531300 83b28200 67000e00  .....S......g...
 103a0 172e0000 033e0ec7 67030e00 13000000  .....>..g.......
Contents of section .text:
 103b0 ef00e002 aa871705 00001305 a51b8265  ...............e
 103c0 30001371 01ff9706 00009386 26261707  0..q........&&..
 103d0 00001307 272b0a88 eff09ffc 02909721  ....'+.........!
 103e0 00009381 21428280 00004965 49679307  ....!B....IeIg..
 103f0 05001307 07006308 f7009307 000081c7  ......c.........
 10400 13050500 82878280 49659307 05004967  ........Ie....Ig
 10410 93050700 9d8d93d7 3540fd91 be958585  ........5@......
 10420 99c59307 000081c7 13050500 82878280  ................
 10430 411122e0 83c70183 06e491e7 eff0fffa  A.".............
 10440 85472388 f182a260 02644101 82806dbf  .G#....`.dA...m.
 10450 130101fe 233c8100 13040102 2334a4fe  ....#<......#4..
 10460 2330b4fe 033784fe 833704fe b307f700  #0...7...7......
 10470 13850700 03348101 13010102 67800000  .....4......g...
 10480 130101fe 233c8100 13040102 2334a4fe  ....#<......#4..
 10490 2330b4fe 033784fe 833704fe b307f740  #0...7...7.....@
 104a0 13850700 03348101 13010102 67800000  .....4......g...
 104b0 130101fe 233c8100 13040102 2726a4fe  ....#<......'&..
 104c0 2724b4fe 0727c4fe 872784fe d377f700  '$...'...'...w..
 104d0 5385f720 03348101 13010102 67800000  S.. .4......g...
 104e0 130101fe 233c8100 13040102 2726a4fe  ....#<......'&..
 104f0 2724b4fe 0727c4fe 872784fe d377f708  '$...'...'...w..
 10500 5385f720 03348101 13010102 67800000  S.. .4......g...
 10510 130101fe 233c8100 13040102 2726a4fe  ....#<......'&..
 10520 2724b4fe 0727c4fe 872784fe d377f710  '$...'...'...w..
 10530 5385f720 03348101 13010102 67800000  S.. .4......g...
 10540 130101fe 233c8100 13040102 2726a4fe  ....#<......'&..
 10550 2724b4fe 0727c4fe 872784fe d377f718  '$...'...'...w..
 10560 5385f720 03348101 13010102 67800000  S.. .4......g...
 10570 130101fb 23341104 23308104 13040105  ....#4..#0......
 10580 b7170000 93874702 2334f4fe b7170000  ......G.#4......
 10590 93878790 2330f4fe 833504fe 033584fe  ....#0...5...5..
 105a0 eff01feb 233ca4fc 833504fe 033584fe  ....#<...5...5..
 105b0 eff01fed 2338a4fc b7070100 87a74768  ....#8........Gh
 105c0 2726f4fc b7070100 87a78768 2724f4fc  '&.........h'$..
 105d0 872584fc 0725c4fc eff09fed 2722a4fc  .%...%......'"..
 105e0 872584fc 0725c4fc eff09fef 2720a4fc  .%...%......' ..
 105f0 872584fc 0725c4fc eff09ff1 272ea4fa  .%...%......'...
 10600 872584fc 0725c4fc eff09ff3 272ca4fa  .%...%......',..
 10610 93070000 13850700 83308104 03340104  .........0...4..
 10620 13010105 67800000 397122f8 4af01714  ....g...9q".J...
 10630 00001304 247e1719 00001309 297e3309  ....$~......)~3.
 10640 894006fc 26f44eec 52e856e4 13593940  .@..&.N.R.V..Y9@
 10650 630f0900 aa892e8a b28a8144 1c605686  c..........D.`V.
 10660 d2854e85 85048297 2104e319 99fee270  ..N.....!......p
 10670 4274a274 0279e269 426aa26a 21618280  Bt.t.y.iBj.j!a..
 10680 8280                                 ..              
Contents of section .rodata:
 10684 94874541 10069e3f                    ..EA...?        
Contents of section .eh_frame_hdr:
 1068c 011b033b 10000000 01000000 24fdffff  ...;........$...
 1069c 28000000                             (...            
Contents of section .eh_frame:
 106a0 10000000 00000000 037a5200 017c0101  .........zR..|..
 106b0 1b0d0200 10000000 18000000 f4fcffff  ................
 106c0 2e000000 00070100 00000000           ............    
Contents of section .preinit_array:
 11e08 de030100 00000000                    ........        
Contents of section .init_array:
 11e10 4e040100 00000000                    N.......        
Contents of section .fini_array:
 11e18 30040100 00000000                    0.......        
Contents of section .dynamic:
 11e20 01000000 00000000 13000000 00000000  ................
 11e30 20000000 00000000 081e0100 00000000   ...............
 11e40 21000000 00000000 08000000 00000000  !...............
 11e50 19000000 00000000 101e0100 00000000  ................
 11e60 1b000000 00000000 08000000 00000000  ................
 11e70 1a000000 00000000 181e0100 00000000  ................
 11e80 1c000000 00000000 08000000 00000000  ................
 11e90 04000000 00000000 80020100 00000000  ................
 11ea0 f5feff6f 00000000 98020100 00000000  ...o............
 11eb0 05000000 00000000 08030100 00000000  ................
 11ec0 06000000 00000000 c0020100 00000000  ................
 11ed0 0a000000 00000000 3a000000 00000000  ........:.......
 11ee0 0b000000 00000000 18000000 00000000  ................
 11ef0 15000000 00000000 00000000 00000000  ................
 11f00 03000000 00000000 00200100 00000000  ......... ......
 11f10 02000000 00000000 18000000 00000000  ................
 11f20 14000000 00000000 07000000 00000000  ................
 11f30 17000000 00000000 68030100 00000000  ........h.......
 11f40 07000000 00000000 68030100 00000000  ........h.......
 11f50 08000000 00000000 18000000 00000000  ................
 11f60 09000000 00000000 18000000 00000000  ................
 11f70 feffff6f 00000000 48030100 00000000  ...o....H.......
 11f80 ffffff6f 00000000 01000000 00000000  ...o............
 11f90 f0ffff6f 00000000 42030100 00000000  ...o....B.......
 11fa0 00000000 00000000 00000000 00000000  ................
 11fb0 00000000 00000000 00000000 00000000  ................
 11fc0 00000000 00000000 00000000 00000000  ................
 11fd0 00000000 00000000 00000000 00000000  ................
 11fe0 00000000 00000000 00000000 00000000  ................
 11ff0 00000000 00000000 00000000 00000000  ................
Contents of section .got:
 12000 ffffffff ffffffff 00000000 00000000  ................
 12010 80030100 00000000 201e0100 00000000  ........ .......
Contents of section .sdata:
 12020 01000200 00000000 00000000 00000000  ................
Contents of section .comment:
 0000 4743433a 2028474e 55292031 312e312e  GCC: (GNU) 11.1.
 0010 3000                                 0.              
Contents of section .debug_aranges:
 0000 2c000000 02000000 00000800 00000000  ,...............
 0010 b0030100 00000000 38000000 00000000  ........8.......
 0020 00000000 00000000 00000000 00000000  ................
 0030 1c000000 02002800 00000800 00000000  ......(.........
 0040 00000000 00000000 00000000 00000000  ................
 0050 1c000000 0200d904 00000800 00000000  ................
 0060 00000000 00000000 00000000 00000000  ................
 0070 2c000000 02001a05 00000800 00000000  ,...............
 0080 28060100 00000000 5a000000 00000000  (.......Z.......
 0090 00000000 00000000 00000000 00000000  ................
Contents of section .debug_info:
 0000 24000000 05000108 00000000 01000000  $...............
 0010 00b00301 00000000 00420000 00000800  .........B......
 0020 00004800 00000180 ad040000 05000108  ..H.............
 0030 14000000 0d180200 001d5900 00001900  ..........Y.....
 0040 00009600 00000401 085f0100 00040207  ........._......
 0050 ba010000 04040716 01000004 08071101  ................
 0060 00000401 06610100 00052f01 00000126  .....a..../....&
 0070 171e0000 00040205 a0000000 05950000  ................
 0080 0001281c 25000000 05000300 00012914  ..(.%.........).
 0090 6c000000 0e040569 6e740005 70000000  l......int..p...
 00a0 012a162c 00000004 08050301 00000f08  .*.,............
 00b0 04010868 01000005 02030000 021a1360  ...h...........`
 00c0 00000005 31010000 03181341 00000005  ....1......A....
 00d0 97000000 03191454 00000005 72000000  .......T....r...
 00e0 031a1473 00000005 d0000000 042112b3  ...s.........!..
 00f0 00000010 0c04da04 09000100 00087601  ..............v.
 0100 000004dc 040ebf00 00000008 8c010000  ................
 0110 04dd040e bf000000 04080402 000004de  ................
 0120 040ebf00 00000800 11570300 0004df04  .........W......
 0130 03cb0000 00040807 0c010000 09880000  ................
 0140 00240100 000a3300 00000300 040805fe  .$....3.........
 0150 00000004 08044c01 00000410 04470100  ......L......G..
 0160 0012f601 0000091e 10860000 00055301  ..............S.
 0170 0000051c 1c250000 000b6203 00001006  .....%....b.....
 0180 b2780100 00061403 000006b4 05450100  .x...........E..
 0190 000006b2 01000006 b50a7d01 00000200  ..........}.....
 01a0 03510100 00098800 00008d01 00000a33  .Q.............3
 01b0 0000000d 00015101 0000028d 01000007  ......Q.........
 01c0 1e030000 03970100 00019701 000002a1  ................
 01d0 01000007 6b030000 03ab0100 0001ab01  ....k...........
 01e0 000002b5 01000007 cd010000 03bf0100  ................
 01f0 0001bf01 000002c9 01000007 e9010000  ................
 0200 03d30100 0001d301 000002dd 0100000b  ................
 0210 4b030000 1007f228 02000006 c5000000  K......(........
 0220 07f40545 01000000 06f70200 0007f50f  ...E............
 0230 bb030000 02063901 000007f6 14a10300  ......9.........
 0240 0004066d 01000007 f9133c04 00000800  ...m......<.....
 0250 03e70100 0001e701 0000022d 02000013  ...........-....
 0260 7f010000 1c070101 088c0200 00089c01  ................
 0270 00000703 01054501 00000008 e0000000  ......E.........
 0280 0704010f bb030000 02087b00 00000705  ..........{.....
 0290 010eb300 00000408 a8010000 07060115  ................
 02a0 22040000 0808b700 00000707 010eb300  "...............
 02b0 00001800 03370200 00013702 00000291  .....7....7.....
 02c0 02000007 61000000 039b0200 00019b02  ....a...........
 02d0 000002a5 02000007 aa000000 03af0200  ................
 02e0 0001af02 000002b9 02000007 54000000  ............T...
 02f0 03c30200 0001c302 000002cd 02000007  ................
 0300 f2000000 03d70200 0001d702 000002e1  ................
 0310 02000007 89000000 03eb0200 0001eb02  ................
 0320 000002f5 02000007 0b020000 03ff0200  ................
 0330 0001ff02 00000209 03000001 78010000  ............x...
 0340 02130300 00019c01 0000021d 03000001  ................
 0350 b0010000 02270300 0001c401 00000231  .....'.........1
 0360 03000001 d8010000 023b0300 00012802  .........;....(.
 0370 00000245 03000001 8c020000 024f0300  ...E.........O..
 0380 0001a002 00000259 03000001 b4020000  .......Y........
 0390 02630300 0001c802 0000026d 03000001  .c.........m....
 03a0 dc020000 02770300 0001f002 00000281  .....w..........
 03b0 03000001 04030000 028b0300 0005df01  ................
 03c0 0000071e 12b30000 000b3a01 00000407  ..........:.....
 03d0 1fbb0300 00069501 00000721 0f950300  ...........!....
 03e0 00000005 0a030000 077b12a7 00000014  .........{......
 03f0 1007da05 f2030000 0c360300 00dc0af2  .........6......
 0400 0300000c 23010000 dd0b0204 00000c2a  ....#..........*
 0410 030000de 0b120400 0000099b 00000002  ................
 0420 0400000a 33000000 0f0009a7 00000012  ....3...........
 0430 0400000a 33000000 070009b3 00000022  ....3.........."
 0440 0400000a 33000000 03000ba9 01000010  ....3...........
 0450 07d83c04 000006ea 00000007 df09c703  ..<.............
 0460 00000000 091e0000 004c0400 000a3300  .........L....3.
 0470 00000700 040102d9 01000015 2008420e  ............ .B.
 0480 84040000 06db0000 0008440e 00010000  ..........D.....
 0490 00064201 00000845 08140100 000c0679  ..B....E.......y
 04a0 03000008 460b8904 00001000 03530400  ....F........S..
 04b0 00098f00 00009904 00000a33 00000003  ...........3....
 04c0 00164103 00000847 03840400 00040903  ..A....G........
 04d0 5c020100 00000000 003d0000 00050001  \........=......
 04e0 08390100 00011802 00001d24 01000019  .9.........$....
 04f0 0000000c 01000002 7e030000 01170b3b  ........~......;
 0500 00000009 03202001 00000000 00030405  .....  .........
 0510 696e7400 04340000 00005401 00000500  int..4....T.....
 0520 01086e01 0000078d 0300001d 20010000  ..n......... ...
 0530 19000000 28060100 00000000 5a000000  ....(.......Z...
 0540 00000000 42010000 01080503 01000008  ....B...........
 0550 85040000 02d11746 00000009 35000000  .......F....5...
 0560 01080711 0100000a 0405696e 74000108  ..........int...
 0570 05fe0000 00011004 47010000 0b6d0000  ........G....m..
 0580 006d0000 000c0002 72000000 0d870000  .m......r.......
 0590 00034d00 00000387 00000003 87000000  ..M.............
 05a0 00028c00 00000291 00000001 01086801  ..............h.
 05b0 00000672 0400002d 62000000 06c00400  ...r...-b.......
 05c0 002f6200 00000e91 04000001 60018006  ./b.........`...
 05d0 01000000 00000200 00000000 0000019c  ................
 05e0 0fab0400 00014401 28060100 00000000  ......D.(.......
 05f0 58000000 00000000 019c04a1 04000016  X...............
 0600 4d000000 0c000000 04bb0400 00238700  M............#..
 0610 00003600 0000048c 04000030 87000000  ..6........0....
 0620 73000000 10a60400 00015710 41000000  s.........W.A...
 0630 b0000000 11500601 00000000 001e0000  .....P..........
 0640 00000000 00126900 01580f35 000000c4  ......i..X.5....
 0650 00000013 68060100 00000000 05015a02  ....h.........Z.
 0660 83000501 5b028400 05015c02 85000000  ....[.....\.....
 0670 0000                                 ..              
Contents of section .debug_abbrev:
 0000 01110010 17110112 0f030e1b 0e250e13  .............%..
 0010 05000000 010f000b 21084913 00000237  ........!.I....7
 0020 00491300 00032600 49130000 0424000b  .I....&.I....$..
 0030 0b3e0b03 0e000005 1600030e 3a0b3b0b  .>..........:.;.
 0040 390b4913 0000060d 00030e3a 0b3b0b39  9.I........:.;.9
 0050 0b491338 0b000007 1300030e 3c190000  .I.8........<...
 0060 080d0003 0e3a0b3b 05390b49 13380b00  .....:.;.9.I.8..
 0070 00090101 49130113 00000a21 0049132f  ....I......!.I./
 0080 0b00000b 1301030e 0b0b3a0b 3b0b3921  ..........:.;.9!
 0090 08011300 000c0d00 030e3a21 073b0b39  ..........:!.;.9
 00a0 0b491300 000d1101 250e130b 031f1b1f  .I......%.......
 00b0 10170000 0e24000b 0b3e0b03 0800000f  .....$...>......
 00c0 0f000b0b 00001013 010b0b3a 0b3b0539  ...........:.;.9
 00d0 0b011300 00111600 030e3a0b 3b05390b  ..........:.;.9.
 00e0 49130000 12340003 0e3a0b3b 0b390b49  I....4...:.;.9.I
 00f0 133f1900 00131301 030e0b0b 3a0b3b05  .?..........:.;.
 0100 390b0113 00001417 010b0b3a 0b3b0b39  9..........:.;.9
 0110 0b011300 00151301 0b0b3a0b 3b0b390b  ..........:.;.9.
 0120 01130000 16340003 0e3a0b3b 0b390b49  .....4...:.;.9.I
 0130 1388010b 02180000 00011101 250e130b  ............%...
 0140 031f1b1f 10170000 02340003 0e3a0b3b  .........4...:.;
 0150 0b390b49 133f1902 18000003 24000b0b  .9.I.?......$...
 0160 3e0b0308 00000426 00491300 00000124  >......&.I.....$
 0170 000b0b3e 0b030e00 00020f00 0b210849  ...>.........!.I
 0180 13000003 05004913 00000405 00030e3a  ......I........:
 0190 21013b21 c400390b 49130217 00000549  !.;!..9.I......I
 01a0 0002187e 18000006 3400030e 3a21013b  ...~....4...:!.;
 01b0 0b39210f 49133f19 3c190000 07110125  .9!.I.?.<......%
 01c0 0e130b03 1f1b1f11 01120710 17000008  ................
 01d0 1600030e 3a0b3b0b 390b4913 00000926  ....:.;.9.I....&
 01e0 00491300 000a2400 0b0b3e0b 03080000  .I....$...>.....
 01f0 0b010149 13011300 000c2100 00000d15  ...I......!.....
 0200 01271901 1300000e 2e003f19 030e3a0b  .'........?...:.
 0210 3b0b390b 27191101 12074018 7a190000  ;.9.'.....@.z...
 0220 0f2e013f 19030e3a 0b3b0b39 0b271911  ...?...:.;.9.'..
 0230 01120740 187a1900 00103400 030e3a0b  ...@.z....4...:.
 0240 3b0b390b 49130217 0000110b 01110112  ;.9.I...........
 0250 07000012 34000308 3a0b3b0b 390b4913  ....4...:.;.9.I.
 0260 02170000 1348017d 01000000           .....H.}....    
Contents of section .debug_line:
 0000 92000000 05000800 2e000000 010101fb  ................
 0010 0e0d0001 01010100 00000100 00010101  ................
 0020 1f020000 00000000 00000201 1f020f02  ................
 0030 11000000 00110000 00010009 02b00301  ................
 0040 00000000 00033101 03010904 00010302  ......1.........
 0050 09020001 03010908 00010301 09020001  ................
 0060 03010902 00010301 09040001 03010908  ................
 0070 00010301 09080001 03020902 00010301  ................
 0080 09040001 030c0902 00010302 09080001  ................
 0090 09020000 01017200 00000500 08006a00  ......r.......j.
 00a0 00000101 01fb0e0d 00010101 01000000  ................
 00b0 01000001 01011f07 19000000 64000000  ............d...
 00c0 72000000 7a000000 81000000 a1000000  r...z...........
 00d0 b1000000 02011f02 0f0a5900 000000c7  ..........Y.....
 00e0 00000001 cf000000 02dd0000 0002ec00  ................
 00f0 000003f2 00000002 fd000000 04060100  ................
 0100 00055900 0000000b 01000006 32000000  ..Y.........2...
 0110 05000800 2a000000 010101fb 0e0d0001  ....*...........
 0120 01010100 00000100 00010101 1f011900  ................
 0130 00000201 1f020f02 24010000 00240100  ........$....$..
 0140 0000fe00 00000500 08003300 00000101  ..........3.....
 0150 01fb0e0d 00010101 01000000 01000001  ................
 0160 01011f02 19000000 2b010000 02011f02  ........+.......
 0170 0f032001 00000020 01000000 67010000  .. .... ....g...
 0180 01050100 09022806 01000000 000003c4  ......(.........
 0190 00010503 03120900 00010501 06036e09  ..............n.
 01a0 00000105 28031209 06000105 01036e09  ....(.........n.
 01b0 14000105 28031209 0a000105 03060301  ....(...........
 01c0 09040001 05080300 09000001 05180300  ................
 01d0 09000001 050f0603 00090a00 01050700  ................
 01e0 02040306 03010902 00010508 00020403  ................
 01f0 06030009 00000105 21000204 03037f09  ........!.......
 0200 08000105 08000204 03030109 02000105  ................
 0210 21000204 0306037f 09020001 05180002  !...............
 0220 04030300 09000001 05010603 02090600  ................
 0230 01060307 09120001 030a0900 00010902  ................
 0240 00000101                             ....            
Contents of section .debug_frame:
 0000 0c000000 ffffffff 0300017c 010d0200  ...........|....
 0010 3c000000 00000000 28060100 00000000  <.......(.......
 0020 58000000 00000000 420e4044 88049208  X.......B.@D....
 0030 5e810289 06930a94 0c950e64 c142c842  ^..........d.B.B
 0040 c942d242 d342d442 d5420e00 00000000  .B.B.B.B.B......
 0050 14000000 00000000 80060100 00000000  ................
 0060 02000000 00000000                    ........        
Contents of section .debug_str:
 0000 73746172 742e5300 2f686f6d 652f686f  start.S./home/ho
 0010 68616963 6f6e6774 6875616e 2f476974  haicongthuan/Git
 0020 4875622f 72697363 762d676e 752d746f  Hub/riscv-gnu-to
 0030 6f6c6368 61696e2f 72697363 762d676c  olchain/riscv-gl
 0040 6962632f 63737500 474e5520 41532032  ibc/csu.GNU AS 2
 0050 2e333700 736f636b 61646472 5f69736f  .37.sockaddr_iso
 0060 00736f63 6b616464 725f696e 61727000  .sockaddr_inarp.
 0070 5f5f7569 6e743332 5f740073 696e365f  __uint32_t.sin6_
 0080 666c6f77 696e666f 00736f63 6b616464  flowinfo.sockadd
 0090 725f756e 005f5f75 696e7431 365f7400  r_un.__uint16_t.
 00a0 73686f72 7420696e 7400736f 636b6164  short int.sockad
 00b0 64725f69 70780073 696e365f 73636f70  dr_ipx.sin6_scop
 00c0 655f6964 0073696e 5f66616d 696c7900  e_id.sin_family.
 00d0 456c6636 345f576f 7264006e 68647200  Elf64_Word.nhdr.
 00e0 73696e36 5f706f72 74005f5f 696e365f  sin6_port.__in6_
 00f0 7500736f 636b6164 64725f6e 73006c6f  u.sockaddr_ns.lo
 0100 6e67206c 6f6e6720 696e7400 6c6f6e67  ng long int.long
 0110 206c6f6e 6720756e 7369676e 65642069   long unsigned i
 0120 6e74005f 5f75365f 61646472 3136005f  nt.__u6_addr16._
 0130 5f75696e 74385f74 0073696e 5f616464  _uint8_t.sin_add
 0140 72006e61 6d65006c 6f6e6720 646f7562  r.name.long doub
 0150 6c650073 615f6661 6d696c79 5f740075  le.sa_family_t.u
 0160 6e736967 6e656420 63686172 0073696e  nsigned char.sin
 0170 5f7a6572 6f006e5f 6e616d65 737a0073  _zero.n_namesz.s
 0180 6f636b61 6464725f 696e3600 6e5f6465  ockaddr_in6.n_de
 0190 7363737a 00735f61 64647200 73696e36  scsz.s_addr.sin6
 01a0 5f66616d 696c7900 73696e36 5f616464  _family.sin6_add
 01b0 72007361 5f646174 61007368 6f727420  r.sa_data.short 
 01c0 756e7369 676e6564 20696e74 00736f63  unsigned int.soc
 01d0 6b616464 725f646c 005f426f 6f6c0069  kaddr_dl._Bool.i
 01e0 6e5f6164 64725f74 00736f63 6b616464  n_addr_t.sockadd
 01f0 725f656f 6e005f5f 74687265 61645f73  r_eon.__thread_s
 0200 656c6600 6e5f7479 70650073 6f636b61  elf.n_type.socka
 0210 6464725f 78323500 474e5520 43313120  ddr_x25.GNU C11 
 0220 31312e31 2e30202d 6d636d6f 64656c3d  11.1.0 -mcmodel=
 0230 6d65646c 6f77202d 6d74756e 653d726f  medlow -mtune=ro
 0240 636b6574 202d6d61 7263683d 72763634  cket -march=rv64
 0250 696d6166 6463202d 6d616269 3d6c7036  imafdc -mabi=lp6
 0260 3464202d 6d617263 683d7276 3634696d  4d -march=rv64im
 0270 61666463 202d6720 2d4f3220 2d737464  afdc -g -O2 -std
 0280 3d676e75 3131202d 66676e75 38392d69  =gnu11 -fgnu89-i
 0290 6e6c696e 65202d66 6d657267 652d616c  nline -fmerge-al
 02a0 6c2d636f 6e737461 6e747320 2d66726f  l-constants -fro
 02b0 756e6469 6e672d6d 61746820 2d666d61  unding-math -fma
 02c0 74682d65 72726e6f 202d666e 6f2d7374  th-errno -fno-st
 02d0 61636b2d 70726f74 6563746f 72202d66  ack-protector -f
 02e0 746c732d 6d6f6465 6c3d696e 69746961  tls-model=initia
 02f0 6c2d6578 65630073 696e5f70 6f727400  l-exec.sin_port.
 0300 5f5f696e 7433325f 7400696e 5f706f72  __int32_t.in_por
 0310 745f7400 73615f66 616d696c 7900736f  t_t.sa_family.so
 0320 636b6164 64725f61 74005f5f 75365f61  ckaddr_at.__u6_a
 0330 64647233 32005f5f 75365f61 64647238  ddr32.__u6_addr8
 0340 005f5f61 62695f74 61670073 6f636b61  .__abi_tag.socka
 0350 6464725f 696e0045 6c663634 5f4e6864  ddr_in.Elf64_Nhd
 0360 7200736f 636b6164 64720073 6f636b61  r.sockaddr.socka
 0370 6464725f 61783235 00646573 63005f49  ddr_ax25.desc._I
 0380 4f5f7374 64696e5f 75736564 00474e55  O_stdin_used.GNU
 0390 20433131 2031312e 312e3020 2d6d636d   C11 11.1.0 -mcm
 03a0 6f64656c 3d6d6564 6c6f7720 2d6d7475  odel=medlow -mtu
 03b0 6e653d72 6f636b65 74202d6d 61726368  ne=rocket -march
 03c0 3d727636 34696d61 66646320 2d6d6162  =rv64imafdc -mab
 03d0 693d6c70 36346420 2d6d6172 63683d72  i=lp64d -march=r
 03e0 76363469 6d616664 63202d67 202d4f32  v64imafdc -g -O2
 03f0 202d7374 643d676e 75313120 2d66676e   -std=gnu11 -fgn
 0400 7538392d 696e6c69 6e65202d 666d6572  u89-inline -fmer
 0410 67652d61 6c6c2d63 6f6e7374 616e7473  ge-all-constants
 0420 202d6672 6f756e64 696e672d 6d617468   -frounding-math
 0430 202d666d 6174682d 6572726e 6f202d66   -fmath-errno -f
 0440 50494320 2d666e6f 2d737461 636b2d70  PIC -fno-stack-p
 0450 726f7465 63746f72 202d6674 6c732d6d  rotector -ftls-m
 0460 6f64656c 3d696e69 7469616c 2d657865  odel=initial-exe
 0470 63005f5f 696e6974 5f617272 61795f73  c.__init_array_s
 0480 74617274 0073697a 655f7400 656e7670  tart.size_t.envp
 0490 005f5f6c 6962635f 6373755f 66696e69  .__libc_csu_fini
 04a0 00617267 63007369 7a65005f 5f6c6962  .argc.size.__lib
 04b0 635f6373 755f696e 69740061 72677600  c_csu_init.argv.
 04c0 5f5f696e 69745f61 72726179 5f656e64  __init_array_end
 04d0 00                                   .               
Contents of section .debug_line_str:
 0000 2e2e2f73 79736465 70732f72 69736376  ../sysdeps/riscv
 0010 00737461 72742e53 002f686f 6d652f68  .start.S./home/h
 0020 6f686169 636f6e67 74687561 6e2f4769  ohaicongthuan/Gi
 0030 74487562 2f726973 63762d67 6e752d74  tHub/riscv-gnu-t
 0040 6f6f6c63 6861696e 2f726973 63762d67  oolchain/riscv-g
 0050 6c696263 2f637375 00616269 2d6e6f74  libc/csu.abi-not
 0060 652e6300 2e2e2f70 6f736978 2f626974  e.c.../posix/bit
 0070 73002e2e 2f626974 73002e2e 2f656c66  s.../bits.../elf
 0080 002e2e2f 73797364 6570732f 756e6978  .../sysdeps/unix
 0090 2f737973 762f6c69 6e75782f 62697473  /sysv/linux/bits
 00a0 002e2e2f 696e6574 2f6e6574 696e6574  .../inet/netinet
 00b0 002e2e2f 73797364 6570732f 72697363  .../sysdeps/risc
 00c0 762f6e70 746c0074 79706573 2e680073  v/nptl.types.h.s
 00d0 7464696e 742d696e 746e2e68 00737464  tdint-intn.h.std
 00e0 696e742d 75696e74 6e2e6800 656c662e  int-uintn.h.elf.
 00f0 6800736f 636b6164 64722e68 00736f63  h.sockaddr.h.soc
 0100 6b65742e 6800696e 2e680074 6c732e68  ket.h.in.h.tls.h
 0110 00737461 7469632d 72656c6f 632e6300  .static-reloc.c.
 0120 656c662d 696e6974 2e63002f 6f70742f  elf-init.c./opt/
 0130 72697363 762f6c69 622f6763 632f7269  riscv/lib/gcc/ri
 0140 73637636 342d756e 6b6e6f77 6e2d6c69  scv64-unknown-li
 0150 6e75782d 676e752f 31312e31 2e302f69  nux-gnu/11.1.0/i
 0160 6e636c75 64650073 74646465 662e6800  nclude.stddef.h.
Contents of section .debug_loclists:
 0000 10010000 05000800 00000000 07280601  .............(..
 0010 00000000 005c0601 00000000 00015a07  .....\........Z.
 0020 5c060100 00000000 80060100 00000000  \...............
 0030 04a3015a 9f000728 06010000 0000005c  ...Z...(.......\
 0040 06010000 00000001 5b075c06 01000000  ........[.\.....
 0050 00006e06 01000000 00000164 076e0601  ..n........d.n..
 0060 00000000 00800601 00000000 0004a301  ................
 0070 5b9f0007 28060100 00000000 5c060100  [...(.......\...
 0080 00000000 015c075c 06010000 0000006e  .....\.\.......n
 0090 06010000 00000001 65076e06 01000000  ........e.n.....
 00a0 00008006 01000000 000004a3 015c9f00  .............\..
 00b0 07500601 00000000 00760601 00000000  .P.......v......
 00c0 00016200 07500601 00000000 005c0601  ..b..P.......\..
 00d0 00000000 0002309f 075c0601 00000000  ......0..\......
 00e0 00660601 00000000 00015907 66060100  .f........Y.f...
 00f0 00000000 68060100 00000000 03797f9f  ....h........y..
 0100 07680601 00000000 006e0601 00000000  .h.......n......
 0110 00015900                             ..Y.            

Disassembly of section .interp:

0000000000010238 <.interp>:
   10238:	62696c2f          	0x62696c2f
   1023c:	2d646c2f          	0x2d646c2f
   10240:	696c                	ld	a1,208(a0)
   10242:	756e                	ld	a0,248(sp)
   10244:	2d78                	fld	fa4,216(a0)
   10246:	6972                	ld	s2,280(sp)
   10248:	36766373          	csrrsi	t1,0x367,12
   1024c:	2d34                	fld	fa3,88(a0)
   1024e:	706c                	ld	a1,224(s0)
   10250:	3436                	fld	fs0,360(sp)
   10252:	2e64                	fld	fs1,216(a2)
   10254:	312e6f73          	csrrsi	t5,0x312,28
	...

Disassembly of section .note.ABI-tag:

000000000001025c <__abi_tag>:
   1025c:	0004                	0x4
   1025e:	0000                	unimp
   10260:	0010                	0x10
   10262:	0000                	unimp
   10264:	0001                	nop
   10266:	0000                	unimp
   10268:	00554e47          	fmsub.s	ft8,fa0,ft5,ft0,rmm
   1026c:	0000                	unimp
   1026e:	0000                	unimp
   10270:	0004                	0x4
   10272:	0000                	unimp
   10274:	0000000f          	fence	unknown,unknown
   10278:	0000                	unimp
	...

Disassembly of section .hash:

0000000000010280 <.hash>:
   10280:	0001                	nop
   10282:	0000                	unimp
   10284:	00000003          	lb	zero,0(zero) # 0 <__abi_tag-0x1025c>
   10288:	0002                	c.slli64	zero
	...
   10292:	0000                	unimp
   10294:	0001                	nop
	...

Disassembly of section .gnu.hash:

0000000000010298 <.gnu.hash>:
   10298:	0002                	c.slli64	zero
   1029a:	0000                	unimp
   1029c:	0001                	nop
   1029e:	0000                	unimp
   102a0:	0001                	nop
   102a2:	0000                	unimp
   102a4:	0006                	c.slli	zero,0x1
   102a6:	0000                	unimp
   102a8:	0000                	unimp
   102aa:	0100                	addi	s0,sp,128
   102ac:	4000                	lw	s0,0(s0)
   102ae:	0100                	addi	s0,sp,128
   102b0:	0001                	nop
   102b2:	0000                	unimp
   102b4:	0000                	unimp
   102b6:	0000                	unimp
   102b8:	4e2e                	lw	t3,200(sp)
   102ba:	f63d                	bnez	a2,10228 <__abi_tag-0x34>
   102bc:	7e19                	lui	t3,0xfffe6
   102be:	870a                	mv	a4,sp

Disassembly of section .dynsym:

00000000000102c0 <.dynsym>:
	...
   102d8:	0001                	nop
   102da:	0000                	unimp
   102dc:	0012                	c.slli	zero,0x4
   102de:	0000                	unimp
   102e0:	03a0                	addi	s0,sp,456
   102e2:	0001                	nop
	...
   102f0:	0028                	addi	a0,sp,8
   102f2:	0000                	unimp
   102f4:	0010                	0x10
   102f6:	fff1                	bnez	a5,102d2 <__abi_tag+0x76>
   102f8:	2800                	fld	fs0,16(s0)
   102fa:	0001                	nop
	...

Disassembly of section .dynstr:

0000000000010308 <.dynstr>:
   10308:	5f00                	lw	s0,56(a4)
   1030a:	6c5f 6269 5f63      	0x5f6362696c5f
   10310:	72617473          	csrrci	s0,0x726,2
   10314:	5f74                	lw	a3,124(a4)
   10316:	616d                	addi	sp,sp,240
   10318:	6e69                	lui	t3,0x1a
   1031a:	6c00                	ld	s0,24(s0)
   1031c:	6269                	lui	tp,0x1a
   1031e:	6f732e63          	0x6f732e63
   10322:	362e                	fld	fa2,232(sp)
   10324:	4700                	lw	s0,8(a4)
   10326:	494c                	lw	a1,20(a0)
   10328:	4342                	lw	t1,16(sp)
   1032a:	325f 322e 0037      	0x37322e325f
   10330:	5f5f 6c67 626f      	0x626f6c675f5f
   10336:	6c61                	lui	s8,0x18
   10338:	705f 696f 746e      	0x746e696f705f
   1033e:	7265                	lui	tp,0xffff9
   10340:	0024                	addi	s1,sp,8

Disassembly of section .gnu.version:

0000000000010342 <.gnu.version>:
   10342:	0000                	unimp
   10344:	0002                	c.slli64	zero
   10346:	0001                	nop

Disassembly of section .gnu.version_r:

0000000000010348 <.gnu.version_r>:
   10348:	0001                	nop
   1034a:	0001                	nop
   1034c:	00000013          	nop
   10350:	0010                	0x10
   10352:	0000                	unimp
   10354:	0000                	unimp
   10356:	0000                	unimp
   10358:	06969187          	0x6969187
   1035c:	0000                	unimp
   1035e:	0002                	c.slli64	zero
   10360:	001d                	c.nop	7
   10362:	0000                	unimp
   10364:	0000                	unimp
	...

Disassembly of section .rela.plt:

0000000000010368 <.rela.plt>:
   10368:	2010                	fld	fa2,0(s0)
   1036a:	0001                	nop
   1036c:	0000                	unimp
   1036e:	0000                	unimp
   10370:	0005                	c.nop	1
   10372:	0000                	unimp
   10374:	0001                	nop
	...

Disassembly of section .plt:

0000000000010380 <_PROCEDURE_LINKAGE_TABLE_>:
   10380:	00002397          	auipc	t2,0x2
   10384:	41c30333          	sub	t1,t1,t3
   10388:	c803be03          	ld	t3,-896(t2) # 12000 <__TMC_END__>
   1038c:	fd430313          	addi	t1,t1,-44
   10390:	c8038293          	addi	t0,t2,-896
   10394:	00135313          	srli	t1,t1,0x1
   10398:	0082b283          	ld	t0,8(t0)
   1039c:	000e0067          	jr	t3 # 1a000 <__global_pointer$+0x7800>

00000000000103a0 <__libc_start_main@plt>:
   103a0:	00002e17          	auipc	t3,0x2
   103a4:	c70e3e03          	ld	t3,-912(t3) # 12010 <__libc_start_main@GLIBC_2.27>
   103a8:	000e0367          	jalr	t1,t3
   103ac:	00000013          	nop

Disassembly of section .text:

00000000000103b0 <_start>:
   103b0:	02e000ef          	jal	ra,103de <load_gp>
   103b4:	87aa                	mv	a5,a0
   103b6:	00000517          	auipc	a0,0x0
   103ba:	1ba50513          	addi	a0,a0,442 # 10570 <main>
   103be:	6582                	ld	a1,0(sp)
   103c0:	0030                	addi	a2,sp,8
   103c2:	ff017113          	andi	sp,sp,-16
   103c6:	00000697          	auipc	a3,0x0
   103ca:	26268693          	addi	a3,a3,610 # 10628 <__libc_csu_init>
   103ce:	00000717          	auipc	a4,0x0
   103d2:	2b270713          	addi	a4,a4,690 # 10680 <__libc_csu_fini>
   103d6:	880a                	mv	a6,sp
   103d8:	fc9ff0ef          	jal	ra,103a0 <__libc_start_main@plt>
   103dc:	9002                	ebreak

00000000000103de <load_gp>:
   103de:	00002197          	auipc	gp,0x2
   103e2:	42218193          	addi	gp,gp,1058 # 12800 <__global_pointer$>
   103e6:	8082                	ret
	...

00000000000103ea <deregister_tm_clones>:
   103ea:	6549                	lui	a0,0x12
   103ec:	6749                	lui	a4,0x12
   103ee:	00050793          	mv	a5,a0
   103f2:	00070713          	mv	a4,a4
   103f6:	00f70863          	beq	a4,a5,10406 <deregister_tm_clones+0x1c>
   103fa:	00000793          	li	a5,0
   103fe:	c781                	beqz	a5,10406 <deregister_tm_clones+0x1c>
   10400:	00050513          	mv	a0,a0
   10404:	8782                	jr	a5
   10406:	8082                	ret

0000000000010408 <register_tm_clones>:
   10408:	6549                	lui	a0,0x12
   1040a:	00050793          	mv	a5,a0
   1040e:	6749                	lui	a4,0x12
   10410:	00070593          	mv	a1,a4
   10414:	8d9d                	sub	a1,a1,a5
   10416:	4035d793          	srai	a5,a1,0x3
   1041a:	91fd                	srli	a1,a1,0x3f
   1041c:	95be                	add	a1,a1,a5
   1041e:	8585                	srai	a1,a1,0x1
   10420:	c599                	beqz	a1,1042e <register_tm_clones+0x26>
   10422:	00000793          	li	a5,0
   10426:	c781                	beqz	a5,1042e <register_tm_clones+0x26>
   10428:	00050513          	mv	a0,a0
   1042c:	8782                	jr	a5
   1042e:	8082                	ret

0000000000010430 <__do_global_dtors_aux>:
   10430:	1141                	addi	sp,sp,-16
   10432:	e022                	sd	s0,0(sp)
   10434:	8301c783          	lbu	a5,-2000(gp) # 12030 <completed.0>
   10438:	e406                	sd	ra,8(sp)
   1043a:	e791                	bnez	a5,10446 <__do_global_dtors_aux+0x16>
   1043c:	fafff0ef          	jal	ra,103ea <deregister_tm_clones>
   10440:	4785                	li	a5,1
   10442:	82f18823          	sb	a5,-2000(gp) # 12030 <completed.0>
   10446:	60a2                	ld	ra,8(sp)
   10448:	6402                	ld	s0,0(sp)
   1044a:	0141                	addi	sp,sp,16
   1044c:	8082                	ret

000000000001044e <frame_dummy>:
   1044e:	bf6d                	j	10408 <register_tm_clones>

0000000000010450 <Add>:
   10450:	fe010113          	addi	sp,sp,-32
   10454:	00813c23          	sd	s0,24(sp)
   10458:	02010413          	addi	s0,sp,32
   1045c:	fea43423          	sd	a0,-24(s0)
   10460:	feb43023          	sd	a1,-32(s0)
   10464:	fe843703          	ld	a4,-24(s0)
   10468:	fe043783          	ld	a5,-32(s0)
   1046c:	00f707b3          	add	a5,a4,a5
   10470:	00078513          	mv	a0,a5
   10474:	01813403          	ld	s0,24(sp)
   10478:	02010113          	addi	sp,sp,32
   1047c:	00008067          	ret

0000000000010480 <Sub>:
   10480:	fe010113          	addi	sp,sp,-32
   10484:	00813c23          	sd	s0,24(sp)
   10488:	02010413          	addi	s0,sp,32
   1048c:	fea43423          	sd	a0,-24(s0)
   10490:	feb43023          	sd	a1,-32(s0)
   10494:	fe843703          	ld	a4,-24(s0)
   10498:	fe043783          	ld	a5,-32(s0)
   1049c:	40f707b3          	sub	a5,a4,a5
   104a0:	00078513          	mv	a0,a5
   104a4:	01813403          	ld	s0,24(sp)
   104a8:	02010113          	addi	sp,sp,32
   104ac:	00008067          	ret

00000000000104b0 <FP_Add>:
   104b0:	fe010113          	addi	sp,sp,-32
   104b4:	00813c23          	sd	s0,24(sp)
   104b8:	02010413          	addi	s0,sp,32
   104bc:	fea42627          	fsw	fa0,-20(s0)
   104c0:	feb42427          	fsw	fa1,-24(s0)
   104c4:	fec42707          	flw	fa4,-20(s0)
   104c8:	fe842787          	flw	fa5,-24(s0)
   104cc:	00f777d3          	fadd.s	fa5,fa4,fa5
   104d0:	20f78553          	fmv.s	fa0,fa5
   104d4:	01813403          	ld	s0,24(sp)
   104d8:	02010113          	addi	sp,sp,32
   104dc:	00008067          	ret

00000000000104e0 <FP_Sub>:
   104e0:	fe010113          	addi	sp,sp,-32
   104e4:	00813c23          	sd	s0,24(sp)
   104e8:	02010413          	addi	s0,sp,32
   104ec:	fea42627          	fsw	fa0,-20(s0)
   104f0:	feb42427          	fsw	fa1,-24(s0)
   104f4:	fec42707          	flw	fa4,-20(s0)
   104f8:	fe842787          	flw	fa5,-24(s0)
   104fc:	08f777d3          	fsub.s	fa5,fa4,fa5
   10500:	20f78553          	fmv.s	fa0,fa5
   10504:	01813403          	ld	s0,24(sp)
   10508:	02010113          	addi	sp,sp,32
   1050c:	00008067          	ret

0000000000010510 <FP_Mul>:
   10510:	fe010113          	addi	sp,sp,-32
   10514:	00813c23          	sd	s0,24(sp)
   10518:	02010413          	addi	s0,sp,32
   1051c:	fea42627          	fsw	fa0,-20(s0)
   10520:	feb42427          	fsw	fa1,-24(s0)
   10524:	fec42707          	flw	fa4,-20(s0)
   10528:	fe842787          	flw	fa5,-24(s0)
   1052c:	10f777d3          	fmul.s	fa5,fa4,fa5
   10530:	20f78553          	fmv.s	fa0,fa5
   10534:	01813403          	ld	s0,24(sp)
   10538:	02010113          	addi	sp,sp,32
   1053c:	00008067          	ret

0000000000010540 <FP_Div>:
   10540:	fe010113          	addi	sp,sp,-32
   10544:	00813c23          	sd	s0,24(sp)
   10548:	02010413          	addi	s0,sp,32
   1054c:	fea42627          	fsw	fa0,-20(s0)
   10550:	feb42427          	fsw	fa1,-24(s0)
   10554:	fec42707          	flw	fa4,-20(s0)
   10558:	fe842787          	flw	fa5,-24(s0)
   1055c:	18f777d3          	fdiv.s	fa5,fa4,fa5
   10560:	20f78553          	fmv.s	fa0,fa5
   10564:	01813403          	ld	s0,24(sp)
   10568:	02010113          	addi	sp,sp,32
   1056c:	00008067          	ret

0000000000010570 <main>:
   10570:	fb010113          	addi	sp,sp,-80
   10574:	04113423          	sd	ra,72(sp)
   10578:	04813023          	sd	s0,64(sp)
   1057c:	05010413          	addi	s0,sp,80
   10580:	000017b7          	lui	a5,0x1
   10584:	02478793          	addi	a5,a5,36 # 1024 <__abi_tag-0xf238>
   10588:	fef43423          	sd	a5,-24(s0)
   1058c:	000017b7          	lui	a5,0x1
   10590:	90878793          	addi	a5,a5,-1784 # 908 <__abi_tag-0xf954>
   10594:	fef43023          	sd	a5,-32(s0)
   10598:	fe043583          	ld	a1,-32(s0)
   1059c:	fe843503          	ld	a0,-24(s0)
   105a0:	eb1ff0ef          	jal	ra,10450 <Add>
   105a4:	fca43c23          	sd	a0,-40(s0)
   105a8:	fe043583          	ld	a1,-32(s0)
   105ac:	fe843503          	ld	a0,-24(s0)
   105b0:	ed1ff0ef          	jal	ra,10480 <Sub>
   105b4:	fca43823          	sd	a0,-48(s0)
   105b8:	000107b7          	lui	a5,0x10
   105bc:	6847a787          	flw	fa5,1668(a5) # 10684 <__libc_csu_fini+0x4>
   105c0:	fcf42627          	fsw	fa5,-52(s0)
   105c4:	000107b7          	lui	a5,0x10
   105c8:	6887a787          	flw	fa5,1672(a5) # 10688 <__libc_csu_fini+0x8>
   105cc:	fcf42427          	fsw	fa5,-56(s0)
   105d0:	fc842587          	flw	fa1,-56(s0)
   105d4:	fcc42507          	flw	fa0,-52(s0)
   105d8:	ed9ff0ef          	jal	ra,104b0 <FP_Add>
   105dc:	fca42227          	fsw	fa0,-60(s0)
   105e0:	fc842587          	flw	fa1,-56(s0)
   105e4:	fcc42507          	flw	fa0,-52(s0)
   105e8:	ef9ff0ef          	jal	ra,104e0 <FP_Sub>
   105ec:	fca42027          	fsw	fa0,-64(s0)
   105f0:	fc842587          	flw	fa1,-56(s0)
   105f4:	fcc42507          	flw	fa0,-52(s0)
   105f8:	f19ff0ef          	jal	ra,10510 <FP_Mul>
   105fc:	faa42e27          	fsw	fa0,-68(s0)
   10600:	fc842587          	flw	fa1,-56(s0)
   10604:	fcc42507          	flw	fa0,-52(s0)
   10608:	f39ff0ef          	jal	ra,10540 <FP_Div>
   1060c:	faa42c27          	fsw	fa0,-72(s0)
   10610:	00000793          	li	a5,0
   10614:	00078513          	mv	a0,a5
   10618:	04813083          	ld	ra,72(sp)
   1061c:	04013403          	ld	s0,64(sp)
   10620:	05010113          	addi	sp,sp,80
   10624:	00008067          	ret

0000000000010628 <__libc_csu_init>:
   10628:	7139                	addi	sp,sp,-64
   1062a:	f822                	sd	s0,48(sp)
   1062c:	f04a                	sd	s2,32(sp)
   1062e:	00001417          	auipc	s0,0x1
   10632:	7e240413          	addi	s0,s0,2018 # 11e10 <__frame_dummy_init_array_entry>
   10636:	00001917          	auipc	s2,0x1
   1063a:	7e290913          	addi	s2,s2,2018 # 11e18 <__do_global_dtors_aux_fini_array_entry>
   1063e:	40890933          	sub	s2,s2,s0
   10642:	fc06                	sd	ra,56(sp)
   10644:	f426                	sd	s1,40(sp)
   10646:	ec4e                	sd	s3,24(sp)
   10648:	e852                	sd	s4,16(sp)
   1064a:	e456                	sd	s5,8(sp)
   1064c:	40395913          	srai	s2,s2,0x3
   10650:	00090f63          	beqz	s2,1066e <__libc_csu_init+0x46>
   10654:	89aa                	mv	s3,a0
   10656:	8a2e                	mv	s4,a1
   10658:	8ab2                	mv	s5,a2
   1065a:	4481                	li	s1,0
   1065c:	601c                	ld	a5,0(s0)
   1065e:	8656                	mv	a2,s5
   10660:	85d2                	mv	a1,s4
   10662:	854e                	mv	a0,s3
   10664:	0485                	addi	s1,s1,1
   10666:	9782                	jalr	a5
   10668:	0421                	addi	s0,s0,8
   1066a:	fe9919e3          	bne	s2,s1,1065c <__libc_csu_init+0x34>
   1066e:	70e2                	ld	ra,56(sp)
   10670:	7442                	ld	s0,48(sp)
   10672:	74a2                	ld	s1,40(sp)
   10674:	7902                	ld	s2,32(sp)
   10676:	69e2                	ld	s3,24(sp)
   10678:	6a42                	ld	s4,16(sp)
   1067a:	6aa2                	ld	s5,8(sp)
   1067c:	6121                	addi	sp,sp,64
   1067e:	8082                	ret

0000000000010680 <__libc_csu_fini>:
   10680:	8082                	ret

Disassembly of section .rodata:

0000000000010684 <.rodata>:
   10684:	8794                	0x8794
   10686:	4145                	li	sp,17
   10688:	0610                	addi	a2,sp,768
   1068a:	3f9e                	fld	ft11,480(sp)

Disassembly of section .eh_frame_hdr:

000000000001068c <__GNU_EH_FRAME_HDR>:
   1068c:	1b01                	addi	s6,s6,-32
   1068e:	00103b03          	ld	s6,1(zero) # 1 <__abi_tag-0x1025b>
   10692:	0000                	unimp
   10694:	0001                	nop
   10696:	0000                	unimp
   10698:	fd24                	sd	s1,120(a0)
   1069a:	ffff                	0xffff
   1069c:	0028                	addi	a0,sp,8
	...

Disassembly of section .eh_frame:

00000000000106a0 <__FRAME_END__-0x28>:
   106a0:	0010                	0x10
   106a2:	0000                	unimp
   106a4:	0000                	unimp
   106a6:	0000                	unimp
   106a8:	00527a03          	0x527a03
   106ac:	7c01                	lui	s8,0xfffe0
   106ae:	0101                	addi	sp,sp,0
   106b0:	00020d1b          	sext.w	s10,tp
   106b4:	0010                	0x10
   106b6:	0000                	unimp
   106b8:	0018                	0x18
   106ba:	0000                	unimp
   106bc:	fcf4                	sd	a3,248(s1)
   106be:	ffff                	0xffff
   106c0:	002e                	c.slli	zero,0xb
   106c2:	0000                	unimp
   106c4:	0700                	addi	s0,sp,896
   106c6:	0001                	nop

00000000000106c8 <__FRAME_END__>:
   106c8:	0000                	unimp
	...

Disassembly of section .preinit_array:

0000000000011e08 <.preinit_array>:
   11e08:	03de                	slli	t2,t2,0x17
   11e0a:	0001                	nop
   11e0c:	0000                	unimp
	...

Disassembly of section .init_array:

0000000000011e10 <__frame_dummy_init_array_entry>:
   11e10:	044e                	slli	s0,s0,0x13
   11e12:	0001                	nop
   11e14:	0000                	unimp
	...

Disassembly of section .fini_array:

0000000000011e18 <__do_global_dtors_aux_fini_array_entry>:
   11e18:	0430                	addi	a2,sp,520
   11e1a:	0001                	nop
   11e1c:	0000                	unimp
	...

Disassembly of section .dynamic:

0000000000011e20 <_DYNAMIC>:
   11e20:	0001                	nop
   11e22:	0000                	unimp
   11e24:	0000                	unimp
   11e26:	0000                	unimp
   11e28:	00000013          	nop
   11e2c:	0000                	unimp
   11e2e:	0000                	unimp
   11e30:	0020                	addi	s0,sp,8
   11e32:	0000                	unimp
   11e34:	0000                	unimp
   11e36:	0000                	unimp
   11e38:	1e08                	addi	a0,sp,816
   11e3a:	0001                	nop
   11e3c:	0000                	unimp
   11e3e:	0000                	unimp
   11e40:	0021                	c.nop	8
   11e42:	0000                	unimp
   11e44:	0000                	unimp
   11e46:	0000                	unimp
   11e48:	0008                	0x8
   11e4a:	0000                	unimp
   11e4c:	0000                	unimp
   11e4e:	0000                	unimp
   11e50:	0019                	c.nop	6
   11e52:	0000                	unimp
   11e54:	0000                	unimp
   11e56:	0000                	unimp
   11e58:	1e10                	addi	a2,sp,816
   11e5a:	0001                	nop
   11e5c:	0000                	unimp
   11e5e:	0000                	unimp
   11e60:	0000001b          	sext.w	zero,zero
   11e64:	0000                	unimp
   11e66:	0000                	unimp
   11e68:	0008                	0x8
   11e6a:	0000                	unimp
   11e6c:	0000                	unimp
   11e6e:	0000                	unimp
   11e70:	001a                	c.slli	zero,0x6
   11e72:	0000                	unimp
   11e74:	0000                	unimp
   11e76:	0000                	unimp
   11e78:	1e18                	addi	a4,sp,816
   11e7a:	0001                	nop
   11e7c:	0000                	unimp
   11e7e:	0000                	unimp
   11e80:	001c                	0x1c
   11e82:	0000                	unimp
   11e84:	0000                	unimp
   11e86:	0000                	unimp
   11e88:	0008                	0x8
   11e8a:	0000                	unimp
   11e8c:	0000                	unimp
   11e8e:	0000                	unimp
   11e90:	0004                	0x4
   11e92:	0000                	unimp
   11e94:	0000                	unimp
   11e96:	0000                	unimp
   11e98:	0280                	addi	s0,sp,320
   11e9a:	0001                	nop
   11e9c:	0000                	unimp
   11e9e:	0000                	unimp
   11ea0:	fef5                	bnez	a3,11e9c <_DYNAMIC+0x7c>
   11ea2:	6fff                	0x6fff
   11ea4:	0000                	unimp
   11ea6:	0000                	unimp
   11ea8:	0298                	addi	a4,sp,320
   11eaa:	0001                	nop
   11eac:	0000                	unimp
   11eae:	0000                	unimp
   11eb0:	0005                	c.nop	1
   11eb2:	0000                	unimp
   11eb4:	0000                	unimp
   11eb6:	0000                	unimp
   11eb8:	0308                	addi	a0,sp,384
   11eba:	0001                	nop
   11ebc:	0000                	unimp
   11ebe:	0000                	unimp
   11ec0:	0006                	c.slli	zero,0x1
   11ec2:	0000                	unimp
   11ec4:	0000                	unimp
   11ec6:	0000                	unimp
   11ec8:	02c0                	addi	s0,sp,324
   11eca:	0001                	nop
   11ecc:	0000                	unimp
   11ece:	0000                	unimp
   11ed0:	000a                	c.slli	zero,0x2
   11ed2:	0000                	unimp
   11ed4:	0000                	unimp
   11ed6:	0000                	unimp
   11ed8:	003a                	c.slli	zero,0xe
   11eda:	0000                	unimp
   11edc:	0000                	unimp
   11ede:	0000                	unimp
   11ee0:	0000000b          	0xb
   11ee4:	0000                	unimp
   11ee6:	0000                	unimp
   11ee8:	0018                	0x18
   11eea:	0000                	unimp
   11eec:	0000                	unimp
   11eee:	0000                	unimp
   11ef0:	0015                	c.nop	5
	...
   11efe:	0000                	unimp
   11f00:	00000003          	lb	zero,0(zero) # 0 <__abi_tag-0x1025c>
   11f04:	0000                	unimp
   11f06:	0000                	unimp
   11f08:	2000                	fld	fs0,0(s0)
   11f0a:	0001                	nop
   11f0c:	0000                	unimp
   11f0e:	0000                	unimp
   11f10:	0002                	c.slli64	zero
   11f12:	0000                	unimp
   11f14:	0000                	unimp
   11f16:	0000                	unimp
   11f18:	0018                	0x18
   11f1a:	0000                	unimp
   11f1c:	0000                	unimp
   11f1e:	0000                	unimp
   11f20:	0014                	0x14
   11f22:	0000                	unimp
   11f24:	0000                	unimp
   11f26:	0000                	unimp
   11f28:	00000007          	0x7
   11f2c:	0000                	unimp
   11f2e:	0000                	unimp
   11f30:	00000017          	auipc	zero,0x0
   11f34:	0000                	unimp
   11f36:	0000                	unimp
   11f38:	0368                	addi	a0,sp,396
   11f3a:	0001                	nop
   11f3c:	0000                	unimp
   11f3e:	0000                	unimp
   11f40:	00000007          	0x7
   11f44:	0000                	unimp
   11f46:	0000                	unimp
   11f48:	0368                	addi	a0,sp,396
   11f4a:	0001                	nop
   11f4c:	0000                	unimp
   11f4e:	0000                	unimp
   11f50:	0008                	0x8
   11f52:	0000                	unimp
   11f54:	0000                	unimp
   11f56:	0000                	unimp
   11f58:	0018                	0x18
   11f5a:	0000                	unimp
   11f5c:	0000                	unimp
   11f5e:	0000                	unimp
   11f60:	0009                	c.nop	2
   11f62:	0000                	unimp
   11f64:	0000                	unimp
   11f66:	0000                	unimp
   11f68:	0018                	0x18
   11f6a:	0000                	unimp
   11f6c:	0000                	unimp
   11f6e:	0000                	unimp
   11f70:	fffe                	sd	t6,504(sp)
   11f72:	6fff                	0x6fff
   11f74:	0000                	unimp
   11f76:	0000                	unimp
   11f78:	0348                	addi	a0,sp,388
   11f7a:	0001                	nop
   11f7c:	0000                	unimp
   11f7e:	0000                	unimp
   11f80:	ffff                	0xffff
   11f82:	6fff                	0x6fff
   11f84:	0000                	unimp
   11f86:	0000                	unimp
   11f88:	0001                	nop
   11f8a:	0000                	unimp
   11f8c:	0000                	unimp
   11f8e:	0000                	unimp
   11f90:	fff0                	sd	a2,248(a5)
   11f92:	6fff                	0x6fff
   11f94:	0000                	unimp
   11f96:	0000                	unimp
   11f98:	0342                	slli	t1,t1,0x10
   11f9a:	0001                	nop
	...

Disassembly of section .got:

0000000000012000 <__TMC_END__>:
   12000:	ffff                	0xffff
   12002:	ffff                	0xffff
   12004:	ffff                	0xffff
   12006:	ffff                	0xffff
	...
   12010:	0380                	addi	s0,sp,448
   12012:	0001                	nop
   12014:	0000                	unimp
	...

0000000000012018 <_GLOBAL_OFFSET_TABLE_>:
   12018:	1e20                	addi	s0,sp,824
   1201a:	0001                	nop
   1201c:	0000                	unimp
	...

Disassembly of section .sdata:

0000000000012020 <_IO_stdin_used>:
   12020:	0001                	nop
   12022:	0002                	c.slli64	zero
   12024:	0000                	unimp
	...

0000000000012028 <__dso_handle>:
	...

Disassembly of section .bss:

0000000000012030 <completed.0>:
	...

Disassembly of section .comment:

0000000000000000 <.comment>:
   0:	3a434347          	fmsub.d	ft6,ft6,ft4,ft7,rmm
   4:	2820                	fld	fs0,80(s0)
   6:	29554e47          	fmsub.s	ft8,fa0,fs5,ft5,rmm
   a:	3120                	fld	fs0,96(a0)
   c:	2e31                	addiw	t3,t3,12
   e:	2e31                	addiw	t3,t3,12
  10:	0030                	addi	a2,sp,8

Disassembly of section .debug_aranges:

0000000000000000 <.debug_aranges>:
   0:	002c                	addi	a1,sp,8
   2:	0000                	unimp
   4:	0002                	c.slli64	zero
   6:	0000                	unimp
   8:	0000                	unimp
   a:	0008                	0x8
   c:	0000                	unimp
   e:	0000                	unimp
  10:	03b0                	addi	a2,sp,456
  12:	0001                	nop
  14:	0000                	unimp
  16:	0000                	unimp
  18:	0038                	addi	a4,sp,8
	...
  2e:	0000                	unimp
  30:	001c                	0x1c
  32:	0000                	unimp
  34:	0002                	c.slli64	zero
  36:	0028                	addi	a0,sp,8
  38:	0000                	unimp
  3a:	0008                	0x8
	...
  50:	001c                	0x1c
  52:	0000                	unimp
  54:	0002                	c.slli64	zero
  56:	04d9                	addi	s1,s1,22
  58:	0000                	unimp
  5a:	0008                	0x8
	...
  70:	002c                	addi	a1,sp,8
  72:	0000                	unimp
  74:	0002                	c.slli64	zero
  76:	051a                	slli	a0,a0,0x6
  78:	0000                	unimp
  7a:	0008                	0x8
  7c:	0000                	unimp
  7e:	0000                	unimp
  80:	0628                	addi	a0,sp,776
  82:	0001                	nop
  84:	0000                	unimp
  86:	0000                	unimp
  88:	005a                	c.slli	zero,0x16
	...

Disassembly of section .debug_info:

0000000000000000 <.debug_info>:
   0:	0024                	addi	s1,sp,8
   2:	0000                	unimp
   4:	0005                	c.nop	1
   6:	0801                	addi	a6,a6,0
   8:	0000                	unimp
   a:	0000                	unimp
   c:	0001                	nop
   e:	0000                	unimp
  10:	b000                	fsd	fs0,32(s0)
  12:	00000103          	lb	sp,0(zero) # 0 <__abi_tag-0x1025c>
  16:	0000                	unimp
  18:	4200                	lw	s0,0(a2)
  1a:	0000                	unimp
  1c:	0000                	unimp
  1e:	0008                	0x8
  20:	0000                	unimp
  22:	0048                	addi	a0,sp,4
  24:	0000                	unimp
  26:	8001                	c.srli64	s0
  28:	04ad                	addi	s1,s1,11
  2a:	0000                	unimp
  2c:	0005                	c.nop	1
  2e:	0801                	addi	a6,a6,0
  30:	0014                	0x14
  32:	0000                	unimp
  34:	180d                	addi	a6,a6,-29
  36:	0002                	c.slli64	zero
  38:	1d00                	addi	s0,sp,688
  3a:	0059                	c.nop	22
  3c:	0000                	unimp
  3e:	0019                	c.nop	6
  40:	0000                	unimp
  42:	0096                	slli	ra,ra,0x5
  44:	0000                	unimp
  46:	0104                	addi	s1,sp,128
  48:	5f08                	lw	a0,56(a4)
  4a:	0001                	nop
  4c:	0400                	addi	s0,sp,512
  4e:	0702                	c.slli64	a4
  50:	01ba                	slli	gp,gp,0xe
  52:	0000                	unimp
  54:	0404                	addi	s1,sp,512
  56:	00011607          	0x11607
  5a:	0400                	addi	s0,sp,512
  5c:	0708                	addi	a0,sp,896
  5e:	0111                	addi	sp,sp,4
  60:	0000                	unimp
  62:	0104                	addi	s1,sp,128
  64:	6106                	ld	sp,64(sp)
  66:	0001                	nop
  68:	0500                	addi	s0,sp,640
  6a:	0000012f          	0x12f
  6e:	2601                	sext.w	a2,a2
  70:	00001e17          	auipc	t3,0x1
  74:	0400                	addi	s0,sp,512
  76:	0502                	c.slli64	a0
  78:	00a0                	addi	s0,sp,72
  7a:	0000                	unimp
  7c:	9505                	srai	a0,a0,0x21
  7e:	0000                	unimp
  80:	0100                	addi	s0,sp,128
  82:	1c28                	addi	a0,sp,568
  84:	0025                	c.nop	9
  86:	0000                	unimp
  88:	0005                	c.nop	1
  8a:	01000003          	lb	zero,16(zero) # 10 <__abi_tag-0x1024c>
  8e:	1429                	addi	s0,s0,-22
  90:	006c                	addi	a1,sp,12
  92:	0000                	unimp
  94:	040e                	slli	s0,s0,0x3
  96:	6905                	lui	s2,0x1
  98:	746e                	ld	s0,248(sp)
  9a:	0500                	addi	s0,sp,640
  9c:	0070                	addi	a2,sp,12
  9e:	0000                	unimp
  a0:	2a01                	sext.w	s4,s4
  a2:	2c16                	fld	fs8,320(sp)
  a4:	0000                	unimp
  a6:	0400                	addi	s0,sp,512
  a8:	0508                	addi	a0,sp,640
  aa:	00000103          	lb	sp,0(zero) # 0 <__abi_tag-0x1025c>
  ae:	0104080f          	0x104080f
  b2:	6808                	ld	a0,16(s0)
  b4:	0001                	nop
  b6:	0500                	addi	s0,sp,640
  b8:	0302                	c.slli64	t1
  ba:	0000                	unimp
  bc:	1a02                	slli	s4,s4,0x20
  be:	00006013          	ori	zero,zero,0
  c2:	0500                	addi	s0,sp,640
  c4:	0131                	addi	sp,sp,12
  c6:	0000                	unimp
  c8:	41131803          	lh	a6,1041(t1)
  cc:	0000                	unimp
  ce:	0500                	addi	s0,sp,640
  d0:	00000097          	auipc	ra,0x0
  d4:	54141903          	lh	s2,1345(s0)
  d8:	0000                	unimp
  da:	0500                	addi	s0,sp,640
  dc:	0072                	c.slli	zero,0x1c
  de:	0000                	unimp
  e0:	73141a03          	lh	s4,1841(s0)
  e4:	0000                	unimp
  e6:	0500                	addi	s0,sp,640
  e8:	00d0                	addi	a2,sp,68
  ea:	0000                	unimp
  ec:	2104                	fld	fs1,0(a0)
  ee:	b312                	fsd	ft4,416(sp)
  f0:	0000                	unimp
  f2:	1000                	addi	s0,sp,32
  f4:	040c                	addi	a1,sp,512
  f6:	04da                	slli	s1,s1,0x16
  f8:	0009                	c.nop	2
  fa:	0001                	nop
  fc:	0800                	addi	s0,sp,16
  fe:	0176                	slli	sp,sp,0x1d
 100:	0000                	unimp
 102:	dc04                	sw	s1,56(s0)
 104:	0e04                	addi	s1,sp,784
 106:	000000bf 018c0800 	0x18c0800000000bf
 10e:	0000                	unimp
 110:	dd04                	sw	s1,56(a0)
 112:	0e04                	addi	s1,sp,784
 114:	000000bf 02040804 	0x2040804000000bf
 11c:	0000                	unimp
 11e:	de04                	sw	s1,56(a2)
 120:	0e04                	addi	s1,sp,784
 122:	000000bf 57110008 	0x57110008000000bf
 12a:	04000003          	lb	zero,64(zero) # 40 <__abi_tag-0x1021c>
 12e:	04df cb03 0000      	0xcb0304df
 134:	0400                	addi	s0,sp,512
 136:	0708                	addi	a0,sp,896
 138:	010c                	addi	a1,sp,128
 13a:	0000                	unimp
 13c:	8809                	andi	s0,s0,2
 13e:	0000                	unimp
 140:	2400                	fld	fs0,8(s0)
 142:	0001                	nop
 144:	0a00                	addi	s0,sp,272
 146:	00000033          	add	zero,zero,zero
 14a:	08040003          	lb	zero,128(s0)
 14e:	fe05                	bnez	a2,86 <__abi_tag-0x101d6>
 150:	0000                	unimp
 152:	0400                	addi	s0,sp,512
 154:	0408                	addi	a0,sp,512
 156:	014c                	addi	a1,sp,132
 158:	0000                	unimp
 15a:	1004                	addi	s1,sp,32
 15c:	4704                	lw	s1,8(a4)
 15e:	0001                	nop
 160:	1200                	addi	s0,sp,288
 162:	01f6                	slli	gp,gp,0x1d
 164:	0000                	unimp
 166:	1e09                	addi	t3,t3,-30
 168:	8610                	0x8610
 16a:	0000                	unimp
 16c:	0500                	addi	s0,sp,640
 16e:	00000153          	fadd.s	ft2,ft0,ft0,rne
 172:	1c05                	addi	s8,s8,-31
 174:	251c                	fld	fa5,8(a0)
 176:	0000                	unimp
 178:	0b00                	addi	s0,sp,400
 17a:	0362                	slli	t1,t1,0x18
 17c:	0000                	unimp
 17e:	0610                	addi	a2,sp,768
 180:	78b2                	ld	a7,296(sp)
 182:	0001                	nop
 184:	0600                	addi	s0,sp,768
 186:	0314                	addi	a3,sp,384
 188:	0000                	unimp
 18a:	b406                	fsd	ft1,40(sp)
 18c:	4505                	li	a0,1
 18e:	0001                	nop
 190:	0000                	unimp
 192:	b206                	fsd	ft1,288(sp)
 194:	0001                	nop
 196:	0600                	addi	s0,sp,768
 198:	0ab5                	addi	s5,s5,13
 19a:	017d                	addi	sp,sp,31
 19c:	0000                	unimp
 19e:	0002                	c.slli64	zero
 1a0:	00015103          	lhu	sp,0(sp)
 1a4:	0900                	addi	s0,sp,144
 1a6:	0088                	addi	a0,sp,64
 1a8:	0000                	unimp
 1aa:	018d                	addi	gp,gp,3
 1ac:	0000                	unimp
 1ae:	330a                	fld	ft6,160(sp)
 1b0:	0000                	unimp
 1b2:	0d00                	addi	s0,sp,656
 1b4:	0100                	addi	s0,sp,128
 1b6:	0151                	addi	sp,sp,20
 1b8:	0000                	unimp
 1ba:	8d02                	jr	s10
 1bc:	0001                	nop
 1be:	0700                	addi	s0,sp,896
 1c0:	031e                	slli	t1,t1,0x7
 1c2:	0000                	unimp
 1c4:	00019703          	lh	a4,0(gp) # 12800 <__global_pointer$>
 1c8:	0100                	addi	s0,sp,128
 1ca:	00000197          	auipc	gp,0x0
 1ce:	a102                	fsd	ft0,128(sp)
 1d0:	0001                	nop
 1d2:	0700                	addi	s0,sp,896
 1d4:	0000036b          	0x36b
 1d8:	0001ab03          	lw	s6,0(gp) # 1ca <__abi_tag-0x10092>
 1dc:	0100                	addi	s0,sp,128
 1de:	000001ab          	0x1ab
 1e2:	b502                	fsd	ft0,168(sp)
 1e4:	0001                	nop
 1e6:	0700                	addi	s0,sp,896
 1e8:	01cd                	addi	gp,gp,19
 1ea:	0000                	unimp
 1ec:	0001bf03          	ld	t5,0(gp) # 12800 <__global_pointer$>
 1f0:	0100                	addi	s0,sp,128
 1f2:	000001bf 0001c902 	0x1c902000001bf
 1fa:	0700                	addi	s0,sp,896
 1fc:	01e9                	addi	gp,gp,26
 1fe:	0000                	unimp
 200:	0001d303          	lhu	t1,0(gp) # 12800 <__global_pointer$>
 204:	0100                	addi	s0,sp,128
 206:	000001d3          	fadd.s	ft3,ft0,ft0,rne
 20a:	dd02                	sw	zero,184(sp)
 20c:	0001                	nop
 20e:	0b00                	addi	s0,sp,400
 210:	0000034b          	fnmsub.s	ft6,ft0,ft0,ft0,rne
 214:	0710                	addi	a2,sp,896
 216:	28f2                	fld	fa7,280(sp)
 218:	0002                	c.slli64	zero
 21a:	0600                	addi	s0,sp,768
 21c:	00c5                	addi	ra,ra,17
 21e:	0000                	unimp
 220:	4505f407          	0x4505f407
 224:	0001                	nop
 226:	0000                	unimp
 228:	f706                	sd	ra,424(sp)
 22a:	0002                	c.slli64	zero
 22c:	0700                	addi	s0,sp,896
 22e:	0ff5                	addi	t6,t6,29
 230:	000003bb          	addw	t2,zero,zero
 234:	0602                	c.slli64	a2
 236:	0139                	addi	sp,sp,14
 238:	0000                	unimp
 23a:	a114f607          	0xa114f607
 23e:	04000003          	lb	zero,64(zero) # 40 <__abi_tag-0x1021c>
 242:	6d06                	ld	s10,64(sp)
 244:	0001                	nop
 246:	0700                	addi	s0,sp,896
 248:	13f9                	addi	t2,t2,-2
 24a:	043c                	addi	a5,sp,520
 24c:	0000                	unimp
 24e:	0008                	0x8
 250:	0001e703          	lwu	a4,0(gp) # 12800 <__global_pointer$>
 254:	0100                	addi	s0,sp,128
 256:	000001e7          	jalr	gp,zero # 0 <__abi_tag-0x1025c>
 25a:	2d02                	fld	fs10,0(sp)
 25c:	0002                	c.slli64	zero
 25e:	1300                	addi	s0,sp,416
 260:	017f                	0x17f
 262:	0000                	unimp
 264:	071c                	addi	a5,sp,896
 266:	0101                	addi	sp,sp,0
 268:	8c08                	0x8c08
 26a:	0002                	c.slli64	zero
 26c:	0800                	addi	s0,sp,16
 26e:	019c                	addi	a5,sp,192
 270:	0000                	unimp
 272:	05010307          	0x5010307
 276:	0145                	addi	sp,sp,17
 278:	0000                	unimp
 27a:	0800                	addi	s0,sp,16
 27c:	00e0                	addi	s0,sp,76
 27e:	0000                	unimp
 280:	0f010407          	0xf010407
 284:	000003bb          	addw	t2,zero,zero
 288:	0802                	c.slli64	a6
 28a:	0000007b          	0x7b
 28e:	0e010507          	0xe010507
 292:	000000b3          	add	ra,zero,zero
 296:	0804                	addi	s1,sp,16
 298:	01a8                	addi	a0,sp,200
 29a:	0000                	unimp
 29c:	15010607          	0x15010607
 2a0:	0422                	slli	s0,s0,0x8
 2a2:	0000                	unimp
 2a4:	0808                	addi	a0,sp,16
 2a6:	000000b7          	lui	ra,0x0
 2aa:	0e010707          	0xe010707
 2ae:	000000b3          	add	ra,zero,zero
 2b2:	0018                	0x18
 2b4:	00023703          	ld	a4,0(tp) # ffffffffffff9000 <__global_pointer$+0xfffffffffffe6800>
 2b8:	0100                	addi	s0,sp,128
 2ba:	00000237          	lui	tp,0x0
 2be:	9102                	jalr	sp
 2c0:	0002                	c.slli64	zero
 2c2:	0700                	addi	s0,sp,896
 2c4:	0061                	c.nop	24
 2c6:	0000                	unimp
 2c8:	00029b03          	lh	s6,0(t0)
 2cc:	0100                	addi	s0,sp,128
 2ce:	0000029b          	sext.w	t0,zero
 2d2:	a502                	fsd	ft0,136(sp)
 2d4:	0002                	c.slli64	zero
 2d6:	0700                	addi	s0,sp,896
 2d8:	00aa                	slli	ra,ra,0xa
 2da:	0000                	unimp
 2dc:	0002af03          	lw	t5,0(t0)
 2e0:	0100                	addi	s0,sp,128
 2e2:	000002af          	0x2af
 2e6:	b902                	fsd	ft0,176(sp)
 2e8:	0002                	c.slli64	zero
 2ea:	0700                	addi	s0,sp,896
 2ec:	0054                	addi	a3,sp,4
 2ee:	0000                	unimp
 2f0:	0002c303          	lbu	t1,0(t0)
 2f4:	0100                	addi	s0,sp,128
 2f6:	000002c3          	fmadd.s	ft5,ft0,ft0,ft0,rne
 2fa:	cd02                	sw	zero,152(sp)
 2fc:	0002                	c.slli64	zero
 2fe:	0700                	addi	s0,sp,896
 300:	00f2                	slli	ra,ra,0x1c
 302:	0000                	unimp
 304:	0002d703          	lhu	a4,0(t0)
 308:	0100                	addi	s0,sp,128
 30a:	000002d7          	0x2d7
 30e:	e102                	sd	zero,128(sp)
 310:	0002                	c.slli64	zero
 312:	0700                	addi	s0,sp,896
 314:	0089                	addi	ra,ra,2
 316:	0000                	unimp
 318:	0002eb03          	lwu	s6,0(t0)
 31c:	0100                	addi	s0,sp,128
 31e:	000002eb          	0x2eb
 322:	f502                	sd	zero,168(sp)
 324:	0002                	c.slli64	zero
 326:	0700                	addi	s0,sp,896
 328:	0000020b          	0x20b
 32c:	0002ff03          	0x2ff03
 330:	0100                	addi	s0,sp,128
 332:	02ff                	0x2ff
 334:	0000                	unimp
 336:	0902                	c.slli64	s2
 338:	01000003          	lb	zero,16(zero) # 10 <__abi_tag-0x1024c>
 33c:	0178                	addi	a4,sp,140
 33e:	0000                	unimp
 340:	1302                	slli	t1,t1,0x20
 342:	01000003          	lb	zero,16(zero) # 10 <__abi_tag-0x1024c>
 346:	019c                	addi	a5,sp,192
 348:	0000                	unimp
 34a:	1d02                	slli	s10,s10,0x20
 34c:	01000003          	lb	zero,16(zero) # 10 <__abi_tag-0x1024c>
 350:	01b0                	addi	a2,sp,200
 352:	0000                	unimp
 354:	2702                	fld	fa4,0(sp)
 356:	01000003          	lb	zero,16(zero) # 10 <__abi_tag-0x1024c>
 35a:	01c4                	addi	s1,sp,196
 35c:	0000                	unimp
 35e:	3102                	fld	ft2,32(sp)
 360:	01000003          	lb	zero,16(zero) # 10 <__abi_tag-0x1024c>
 364:	01d8                	addi	a4,sp,196
 366:	0000                	unimp
 368:	3b02                	fld	fs6,32(sp)
 36a:	01000003          	lb	zero,16(zero) # 10 <__abi_tag-0x1024c>
 36e:	0228                	addi	a0,sp,264
 370:	0000                	unimp
 372:	4502                	lw	a0,0(sp)
 374:	01000003          	lb	zero,16(zero) # 10 <__abi_tag-0x1024c>
 378:	028c                	addi	a1,sp,320
 37a:	0000                	unimp
 37c:	4f02                	lw	t5,0(sp)
 37e:	01000003          	lb	zero,16(zero) # 10 <__abi_tag-0x1024c>
 382:	02a0                	addi	s0,sp,328
 384:	0000                	unimp
 386:	5902                	lw	s2,32(sp)
 388:	01000003          	lb	zero,16(zero) # 10 <__abi_tag-0x1024c>
 38c:	02b4                	addi	a3,sp,328
 38e:	0000                	unimp
 390:	6302                	ld	t1,0(sp)
 392:	01000003          	lb	zero,16(zero) # 10 <__abi_tag-0x1024c>
 396:	02c8                	addi	a0,sp,324
 398:	0000                	unimp
 39a:	6d02                	ld	s10,0(sp)
 39c:	01000003          	lb	zero,16(zero) # 10 <__abi_tag-0x1024c>
 3a0:	02dc                	addi	a5,sp,324
 3a2:	0000                	unimp
 3a4:	7702                	ld	a4,32(sp)
 3a6:	01000003          	lb	zero,16(zero) # 10 <__abi_tag-0x1024c>
 3aa:	02f0                	addi	a2,sp,332
 3ac:	0000                	unimp
 3ae:	8102                	jr	sp
 3b0:	01000003          	lb	zero,16(zero) # 10 <__abi_tag-0x1024c>
 3b4:	0304                	addi	s1,sp,384
 3b6:	0000                	unimp
 3b8:	8b02                	jr	s6
 3ba:	05000003          	lb	zero,80(zero) # 50 <__abi_tag-0x1020c>
 3be:	01df 0000 1e07      	0x1e07000001df
 3c4:	b312                	fsd	ft4,416(sp)
 3c6:	0000                	unimp
 3c8:	0b00                	addi	s0,sp,400
 3ca:	013a                	slli	sp,sp,0xe
 3cc:	0000                	unimp
 3ce:	0704                	addi	s1,sp,896
 3d0:	bb1f 0003 0600      	0x6000003bb1f
 3d6:	0195                	addi	gp,gp,5
 3d8:	0000                	unimp
 3da:	950f2107          	flw	ft2,-1712(t5)
 3de:	00000003          	lb	zero,0(zero) # 0 <__abi_tag-0x1025c>
 3e2:	0500                	addi	s0,sp,640
 3e4:	030a                	slli	t1,t1,0x2
 3e6:	0000                	unimp
 3e8:	a7127b07          	0xa7127b07
 3ec:	0000                	unimp
 3ee:	1400                	addi	s0,sp,544
 3f0:	0710                	addi	a2,sp,896
 3f2:	05da                	slli	a1,a1,0x16
 3f4:	03f2                	slli	t2,t2,0x1c
 3f6:	0000                	unimp
 3f8:	360c                	fld	fa1,40(a2)
 3fa:	dc000003          	lb	zero,-576(zero) # fffffffffffffdc0 <__global_pointer$+0xfffffffffffed5c0>
 3fe:	f20a                	sd	sp,288(sp)
 400:	0c000003          	lb	zero,192(zero) # c0 <__abi_tag-0x1019c>
 404:	00000123          	sb	zero,2(zero) # 2 <__abi_tag-0x1025a>
 408:	0bdd                	addi	s7,s7,23
 40a:	0402                	c.slli64	s0
 40c:	0000                	unimp
 40e:	2a0c                	fld	fa1,16(a2)
 410:	de000003          	lb	zero,-544(zero) # fffffffffffffde0 <__global_pointer$+0xfffffffffffed5e0>
 414:	0004120b          	0x4120b
 418:	0000                	unimp
 41a:	9b09                	andi	a4,a4,-30
 41c:	0000                	unimp
 41e:	0200                	addi	s0,sp,256
 420:	0004                	0x4
 422:	0a00                	addi	s0,sp,272
 424:	00000033          	add	zero,zero,zero
 428:	a709000f          	0xa709000f
 42c:	0000                	unimp
 42e:	1200                	addi	s0,sp,288
 430:	0004                	0x4
 432:	0a00                	addi	s0,sp,272
 434:	00000033          	add	zero,zero,zero
 438:	b3090007          	0xb3090007
 43c:	0000                	unimp
 43e:	2200                	fld	fs0,0(a2)
 440:	0004                	0x4
 442:	0a00                	addi	s0,sp,272
 444:	00000033          	add	zero,zero,zero
 448:	a90b0003          	lb	zero,-1392(s6)
 44c:	0001                	nop
 44e:	1000                	addi	s0,sp,32
 450:	043cd807          	0x43cd807
 454:	0000                	unimp
 456:	ea06                	sd	ra,272(sp)
 458:	0000                	unimp
 45a:	0700                	addi	s0,sp,896
 45c:	09df 03c7 0000      	0x3c709df
 462:	0000                	unimp
 464:	1e09                	addi	t3,t3,-30
 466:	0000                	unimp
 468:	4c00                	lw	s0,24(s0)
 46a:	0004                	0x4
 46c:	0a00                	addi	s0,sp,272
 46e:	00000033          	add	zero,zero,zero
 472:	01040007          	0x1040007
 476:	d902                	sw	zero,176(sp)
 478:	0001                	nop
 47a:	1500                	addi	s0,sp,672
 47c:	0820                	addi	s0,sp,24
 47e:	0e42                	slli	t3,t3,0x10
 480:	0484                	addi	s1,sp,576
 482:	0000                	unimp
 484:	db06                	sw	ra,180(sp)
 486:	0000                	unimp
 488:	0800                	addi	s0,sp,16
 48a:	0e44                	addi	s1,sp,788
 48c:	0100                	addi	s0,sp,128
 48e:	0000                	unimp
 490:	0600                	addi	s0,sp,768
 492:	0142                	slli	sp,sp,0x10
 494:	0000                	unimp
 496:	4508                	lw	a0,8(a0)
 498:	1408                	addi	a0,sp,544
 49a:	0001                	nop
 49c:	0c00                	addi	s0,sp,528
 49e:	7906                	ld	s2,96(sp)
 4a0:	08000003          	lb	zero,128(zero) # 80 <__abi_tag-0x101dc>
 4a4:	0b46                	slli	s6,s6,0x11
 4a6:	0489                	addi	s1,s1,2
 4a8:	0000                	unimp
 4aa:	0010                	0x10
 4ac:	00045303          	lhu	t1,0(s0)
 4b0:	0900                	addi	s0,sp,144
 4b2:	0000008f          	0x8f
 4b6:	0499                	addi	s1,s1,6
 4b8:	0000                	unimp
 4ba:	330a                	fld	ft6,160(sp)
 4bc:	0000                	unimp
 4be:	0300                	addi	s0,sp,384
 4c0:	1600                	addi	s0,sp,800
 4c2:	0341                	addi	t1,t1,16
 4c4:	0000                	unimp
 4c6:	4708                	lw	a0,8(a4)
 4c8:	00048403          	lb	s0,0(s1)
 4cc:	0400                	addi	s0,sp,512
 4ce:	0309                	addi	t1,t1,2
 4d0:	025c                	addi	a5,sp,260
 4d2:	0001                	nop
 4d4:	0000                	unimp
 4d6:	0000                	unimp
 4d8:	3d00                	fld	fs0,56(a0)
 4da:	0000                	unimp
 4dc:	0500                	addi	s0,sp,640
 4de:	0100                	addi	s0,sp,128
 4e0:	3908                	fld	fa0,48(a0)
 4e2:	0001                	nop
 4e4:	0100                	addi	s0,sp,128
 4e6:	0218                	addi	a4,sp,256
 4e8:	0000                	unimp
 4ea:	241d                	addiw	s0,s0,7
 4ec:	0001                	nop
 4ee:	1900                	addi	s0,sp,176
 4f0:	0000                	unimp
 4f2:	0c00                	addi	s0,sp,528
 4f4:	0001                	nop
 4f6:	0200                	addi	s0,sp,256
 4f8:	037e                	slli	t1,t1,0x1f
 4fa:	0000                	unimp
 4fc:	1701                	addi	a4,a4,-32
 4fe:	00003b0b          	0x3b0b
 502:	0900                	addi	s0,sp,144
 504:	01202003          	lw	zero,18(zero) # 12 <__abi_tag-0x1024a>
 508:	0000                	unimp
 50a:	0000                	unimp
 50c:	0300                	addi	s0,sp,384
 50e:	0504                	addi	s1,sp,640
 510:	6e69                	lui	t3,0x1a
 512:	0074                	addi	a3,sp,12
 514:	3404                	fld	fs1,40(s0)
 516:	0000                	unimp
 518:	0000                	unimp
 51a:	0154                	addi	a3,sp,132
 51c:	0000                	unimp
 51e:	0005                	c.nop	1
 520:	0801                	addi	a6,a6,0
 522:	016e                	slli	sp,sp,0x1b
 524:	0000                	unimp
 526:	00038d07          	0x38d07
 52a:	1d00                	addi	s0,sp,688
 52c:	0120                	addi	s0,sp,136
 52e:	0000                	unimp
 530:	0019                	c.nop	6
 532:	0000                	unimp
 534:	0628                	addi	a0,sp,776
 536:	0001                	nop
 538:	0000                	unimp
 53a:	0000                	unimp
 53c:	005a                	c.slli	zero,0x16
 53e:	0000                	unimp
 540:	0000                	unimp
 542:	0000                	unimp
 544:	0142                	slli	sp,sp,0x10
 546:	0000                	unimp
 548:	0801                	addi	a6,a6,0
 54a:	0305                	addi	t1,t1,1
 54c:	0001                	nop
 54e:	0800                	addi	s0,sp,16
 550:	0485                	addi	s1,s1,1
 552:	0000                	unimp
 554:	d102                	sw	zero,160(sp)
 556:	00004617          	auipc	a2,0x4
 55a:	0900                	addi	s0,sp,144
 55c:	0035                	c.nop	13
 55e:	0000                	unimp
 560:	0801                	addi	a6,a6,0
 562:	00011107          	0x11107
 566:	0a00                	addi	s0,sp,272
 568:	0504                	addi	s1,sp,640
 56a:	6e69                	lui	t3,0x1a
 56c:	0074                	addi	a3,sp,12
 56e:	0801                	addi	a6,a6,0
 570:	fe05                	bnez	a2,4a8 <__abi_tag-0xfdb4>
 572:	0000                	unimp
 574:	0100                	addi	s0,sp,128
 576:	0410                	addi	a2,sp,512
 578:	00000147          	fmsub.s	ft2,ft0,ft0,ft0,rne
 57c:	00006d0b          	0x6d0b
 580:	6d00                	ld	s0,24(a0)
 582:	0000                	unimp
 584:	0c00                	addi	s0,sp,528
 586:	0200                	addi	s0,sp,256
 588:	0072                	c.slli	zero,0x1c
 58a:	0000                	unimp
 58c:	870d                	srai	a4,a4,0x3
 58e:	0000                	unimp
 590:	0300                	addi	s0,sp,384
 592:	004d                	c.nop	19
 594:	0000                	unimp
 596:	00008703          	lb	a4,0(ra) # 0 <__abi_tag-0x1025c>
 59a:	0300                	addi	s0,sp,384
 59c:	00000087          	0x87
 5a0:	0200                	addi	s0,sp,256
 5a2:	008c                	addi	a1,sp,64
 5a4:	0000                	unimp
 5a6:	9102                	jalr	sp
 5a8:	0000                	unimp
 5aa:	0100                	addi	s0,sp,128
 5ac:	0801                	addi	a6,a6,0
 5ae:	0168                	addi	a0,sp,140
 5b0:	0000                	unimp
 5b2:	7206                	ld	tp,96(sp)
 5b4:	0004                	0x4
 5b6:	2d00                	fld	fs0,24(a0)
 5b8:	0062                	c.slli	zero,0x18
 5ba:	0000                	unimp
 5bc:	c006                	sw	ra,0(sp)
 5be:	0004                	0x4
 5c0:	2f00                	fld	fs0,24(a4)
 5c2:	0062                	c.slli	zero,0x18
 5c4:	0000                	unimp
 5c6:	910e                	add	sp,sp,gp
 5c8:	0004                	0x4
 5ca:	0100                	addi	s0,sp,128
 5cc:	0160                	addi	s0,sp,140
 5ce:	0680                	addi	s0,sp,832
 5d0:	0001                	nop
 5d2:	0000                	unimp
 5d4:	0000                	unimp
 5d6:	0002                	c.slli64	zero
 5d8:	0000                	unimp
 5da:	0000                	unimp
 5dc:	0000                	unimp
 5de:	9c01                	subw	s0,s0,s0
 5e0:	0004ab0f          	0x4ab0f
 5e4:	0100                	addi	s0,sp,128
 5e6:	0144                	addi	s1,sp,132
 5e8:	0628                	addi	a0,sp,776
 5ea:	0001                	nop
 5ec:	0000                	unimp
 5ee:	0000                	unimp
 5f0:	0058                	addi	a4,sp,4
 5f2:	0000                	unimp
 5f4:	0000                	unimp
 5f6:	0000                	unimp
 5f8:	9c01                	subw	s0,s0,s0
 5fa:	a104                	fsd	fs1,0(a0)
 5fc:	0004                	0x4
 5fe:	1600                	addi	s0,sp,800
 600:	004d                	c.nop	19
 602:	0000                	unimp
 604:	000c                	0xc
 606:	0000                	unimp
 608:	bb04                	fsd	fs1,48(a4)
 60a:	0004                	0x4
 60c:	2300                	fld	fs0,0(a4)
 60e:	00000087          	0x87
 612:	0036                	c.slli	zero,0xd
 614:	0000                	unimp
 616:	8c04                	0x8c04
 618:	0004                	0x4
 61a:	3000                	fld	fs0,32(s0)
 61c:	00000087          	0x87
 620:	00000073          	ecall
 624:	a610                	fsd	fa2,8(a2)
 626:	0004                	0x4
 628:	0100                	addi	s0,sp,128
 62a:	00411057          	0x411057
 62e:	0000                	unimp
 630:	00b0                	addi	a2,sp,72
 632:	0000                	unimp
 634:	5011                	c.li	zero,-28
 636:	0106                	slli	sp,sp,0x1
 638:	0000                	unimp
 63a:	0000                	unimp
 63c:	1e00                	addi	s0,sp,816
 63e:	0000                	unimp
 640:	0000                	unimp
 642:	0000                	unimp
 644:	1200                	addi	s0,sp,288
 646:	0069                	c.nop	26
 648:	5801                	li	a6,-32
 64a:	0000350f          	0x350f
 64e:	c400                	sw	s0,8(s0)
 650:	0000                	unimp
 652:	1300                	addi	s0,sp,416
 654:	0668                	addi	a0,sp,780
 656:	0001                	nop
 658:	0000                	unimp
 65a:	0000                	unimp
 65c:	0105                	addi	sp,sp,1
 65e:	025a                	slli	tp,tp,0x16
 660:	01050083          	lb	ra,16(a0) # 12010 <__libc_start_main@GLIBC_2.27>
 664:	0084025b          	0x84025b
 668:	0105                	addi	sp,sp,1
 66a:	025c                	addi	a5,sp,260
 66c:	0085                	addi	ra,ra,1
 66e:	0000                	unimp
	...

Disassembly of section .debug_abbrev:

0000000000000000 <.debug_abbrev>:
   0:	1101                	addi	sp,sp,-32
   2:	1000                	addi	s0,sp,32
   4:	12011117          	auipc	sp,0x12011
   8:	1b0e030f          	0x1b0e030f
   c:	250e                	fld	fa0,192(sp)
   e:	130e                	slli	t1,t1,0x23
  10:	0005                	c.nop	1
  12:	0000                	unimp
  14:	0f01                	addi	t5,t5,0
  16:	0b00                	addi	s0,sp,400
  18:	0821                	addi	a6,a6,8
  1a:	1349                	addi	t1,t1,-14
  1c:	0000                	unimp
  1e:	3702                	fld	fa4,32(sp)
  20:	4900                	lw	s0,16(a0)
  22:	03000013          	li	zero,48
  26:	0026                	c.slli	zero,0x9
  28:	1349                	addi	t1,t1,-14
  2a:	0000                	unimp
  2c:	2404                	fld	fs1,8(s0)
  2e:	0b00                	addi	s0,sp,400
  30:	030b3e0b          	0x30b3e0b
  34:	000e                	c.slli	zero,0x3
  36:	0500                	addi	s0,sp,640
  38:	0016                	c.slli	zero,0x5
  3a:	0b3a0e03          	lb	t3,179(s4)
  3e:	0b390b3b          	0xb390b3b
  42:	1349                	addi	t1,t1,-14
  44:	0000                	unimp
  46:	0d06                	slli	s10,s10,0x1
  48:	0300                	addi	s0,sp,384
  4a:	3a0e                	fld	fs4,224(sp)
  4c:	390b3b0b          	0x390b3b0b
  50:	3813490b          	0x3813490b
  54:	0700000b          	0x700000b
  58:	0e030013          	addi	zero,t1,224
  5c:	193c                	addi	a5,sp,184
  5e:	0000                	unimp
  60:	0d08                	addi	a0,sp,656
  62:	0300                	addi	s0,sp,384
  64:	3a0e                	fld	fs4,224(sp)
  66:	39053b0b          	0x39053b0b
  6a:	3813490b          	0x3813490b
  6e:	0900000b          	0x900000b
  72:	0101                	addi	sp,sp,0
  74:	1349                	addi	t1,t1,-14
  76:	1301                	addi	t1,t1,-32
  78:	0000                	unimp
  7a:	210a                	fld	ft2,128(sp)
  7c:	4900                	lw	s0,16(a0)
  7e:	000b2f13          	slti	t5,s6,0
  82:	0b00                	addi	s0,sp,400
  84:	0e030113          	addi	sp,t1,224
  88:	0b3a0b0b          	0xb3a0b0b
  8c:	21390b3b          	0x21390b3b
  90:	0108                	addi	a0,sp,128
  92:	0c000013          	li	zero,192
  96:	000d                	c.nop	3
  98:	213a0e03          	lb	t3,531(s4)
  9c:	390b3b07          	fld	fs6,912(s6)
  a0:	0013490b          	0x13490b
  a4:	0d00                	addi	s0,sp,656
  a6:	0111                	addi	sp,sp,4
  a8:	0e25                	addi	t3,t3,9
  aa:	1f030b13          	addi	s6,t1,496
  ae:	17101f1b          	0x17101f1b
  b2:	0000                	unimp
  b4:	240e                	fld	fs0,192(sp)
  b6:	0b00                	addi	s0,sp,400
  b8:	030b3e0b          	0x30b3e0b
  bc:	0008                	0x8
  be:	0f00                	addi	s0,sp,912
  c0:	0b0b000f          	0xb0b000f
  c4:	0000                	unimp
  c6:	1310                	addi	a2,sp,416
  c8:	0b01                	addi	s6,s6,0
  ca:	3b0b3a0b          	0x3b0b3a0b
  ce:	3905                	addiw	s2,s2,-31
  d0:	0013010b          	0x13010b
  d4:	1100                	addi	s0,sp,160
  d6:	0016                	c.slli	zero,0x5
  d8:	0b3a0e03          	lb	t3,179(s4)
  dc:	0b39053b          	0xb39053b
  e0:	1349                	addi	t1,t1,-14
  e2:	0000                	unimp
  e4:	3412                	fld	fs0,288(sp)
  e6:	0300                	addi	s0,sp,384
  e8:	3a0e                	fld	fs4,224(sp)
  ea:	390b3b0b          	0x390b3b0b
  ee:	3f13490b          	0x3f13490b
  f2:	0019                	c.nop	6
  f4:	1300                	addi	s0,sp,416
  f6:	0e030113          	addi	sp,t1,224
  fa:	0b3a0b0b          	0xb3a0b0b
  fe:	0b39053b          	0xb39053b
 102:	1301                	addi	t1,t1,-32
 104:	0000                	unimp
 106:	1714                	addi	a3,sp,928
 108:	0b01                	addi	s6,s6,0
 10a:	3b0b3a0b          	0x3b0b3a0b
 10e:	010b390b          	0x10b390b
 112:	15000013          	li	zero,336
 116:	0b0b0113          	addi	sp,s6,176
 11a:	0b3a                	slli	s6,s6,0xe
 11c:	0b390b3b          	0xb390b3b
 120:	1301                	addi	t1,t1,-32
 122:	0000                	unimp
 124:	3416                	fld	fs0,352(sp)
 126:	0300                	addi	s0,sp,384
 128:	3a0e                	fld	fs4,224(sp)
 12a:	390b3b0b          	0x390b3b0b
 12e:	8813490b          	0x8813490b
 132:	0b01                	addi	s6,s6,0
 134:	1802                	slli	a6,a6,0x20
 136:	0000                	unimp
 138:	0100                	addi	s0,sp,128
 13a:	0111                	addi	sp,sp,4
 13c:	0e25                	addi	t3,t3,9
 13e:	1f030b13          	addi	s6,t1,496
 142:	17101f1b          	0x17101f1b
 146:	0000                	unimp
 148:	3402                	fld	fs0,32(sp)
 14a:	0300                	addi	s0,sp,384
 14c:	3a0e                	fld	fs4,224(sp)
 14e:	390b3b0b          	0x390b3b0b
 152:	3f13490b          	0x3f13490b
 156:	0219                	addi	tp,tp,6
 158:	0018                	0x18
 15a:	0300                	addi	s0,sp,384
 15c:	0024                	addi	s1,sp,8
 15e:	0b3e0b0b          	0xb3e0b0b
 162:	00000803          	lb	a6,0(zero) # 0 <__abi_tag-0x1025c>
 166:	2604                	fld	fs1,8(a2)
 168:	4900                	lw	s0,16(a0)
 16a:	00000013          	nop
 16e:	2401                	sext.w	s0,s0
 170:	0b00                	addi	s0,sp,400
 172:	030b3e0b          	0x30b3e0b
 176:	000e                	c.slli	zero,0x3
 178:	0200                	addi	s0,sp,256
 17a:	210b000f          	0x210b000f
 17e:	4908                	lw	a0,16(a0)
 180:	03000013          	li	zero,48
 184:	0005                	c.nop	1
 186:	1349                	addi	t1,t1,-14
 188:	0000                	unimp
 18a:	0504                	addi	s1,sp,640
 18c:	0300                	addi	s0,sp,384
 18e:	3a0e                	fld	fs4,224(sp)
 190:	0121                	addi	sp,sp,8
 192:	00c4213b          	0xc4213b
 196:	0b39                	addi	s6,s6,14
 198:	1349                	addi	t1,t1,-14
 19a:	1702                	slli	a4,a4,0x20
 19c:	0000                	unimp
 19e:	4905                	li	s2,1
 1a0:	0200                	addi	s0,sp,256
 1a2:	7e18                	ld	a4,56(a2)
 1a4:	0018                	0x18
 1a6:	0600                	addi	s0,sp,768
 1a8:	0034                	addi	a3,sp,8
 1aa:	213a0e03          	lb	t3,531(s4)
 1ae:	3b01                	addiw	s6,s6,-32
 1b0:	0f21390b          	0xf21390b
 1b4:	1349                	addi	t1,t1,-14
 1b6:	193c193f 11070000 	0x11070000193c193f
 1be:	2501                	sext.w	a0,a0
 1c0:	130e                	slli	t1,t1,0x23
 1c2:	1b1f030b          	0x1b1f030b
 1c6:	111f 1201 1007      	0x10071201111f
 1cc:	08000017          	auipc	zero,0x8000
 1d0:	0016                	c.slli	zero,0x5
 1d2:	0b3a0e03          	lb	t3,179(s4)
 1d6:	0b390b3b          	0xb390b3b
 1da:	1349                	addi	t1,t1,-14
 1dc:	0000                	unimp
 1de:	2609                	addiw	a2,a2,2
 1e0:	4900                	lw	s0,16(a0)
 1e2:	0a000013          	li	zero,160
 1e6:	0024                	addi	s1,sp,8
 1e8:	0b3e0b0b          	0xb3e0b0b
 1ec:	00000803          	lb	a6,0(zero) # 0 <__abi_tag-0x1025c>
 1f0:	4901010b          	0x4901010b
 1f4:	00130113          	addi	sp,t1,1
 1f8:	0c00                	addi	s0,sp,528
 1fa:	0021                	c.nop	8
 1fc:	0000                	unimp
 1fe:	150d                	addi	a0,a0,-29
 200:	2701                	sext.w	a4,a4
 202:	0119                	addi	sp,sp,6
 204:	0e000013          	li	zero,224
 208:	002e                	c.slli	zero,0xb
 20a:	0e03193f 0b3b0b3a 	0xb3b0b3a0e03193f
 212:	0b39                	addi	s6,s6,14
 214:	01111927          	0x1111927
 218:	0712                	slli	a4,a4,0x4
 21a:	1840                	addi	s0,sp,52
 21c:	197a                	slli	s2,s2,0x3e
 21e:	0000                	unimp
 220:	3f012e0f          	0x3f012e0f
 224:	0319                	addi	t1,t1,6
 226:	3a0e                	fld	fs4,224(sp)
 228:	390b3b0b          	0x390b3b0b
 22c:	1119270b          	0x1119270b
 230:	1201                	addi	tp,tp,-32
 232:	7a184007          	flq	ft0,1953(a6)
 236:	0019                	c.nop	6
 238:	1000                	addi	s0,sp,32
 23a:	0034                	addi	a3,sp,8
 23c:	0b3a0e03          	lb	t3,179(s4)
 240:	0b390b3b          	0xb390b3b
 244:	1349                	addi	t1,t1,-14
 246:	1702                	slli	a4,a4,0x20
 248:	0000                	unimp
 24a:	0b11                	addi	s6,s6,4
 24c:	1101                	addi	sp,sp,-32
 24e:	1201                	addi	tp,tp,-32
 250:	12000007          	0x12000007
 254:	0034                	addi	a3,sp,8
 256:	0b3a0803          	lb	a6,179(s4)
 25a:	0b390b3b          	0xb390b3b
 25e:	1349                	addi	t1,t1,-14
 260:	1702                	slli	a4,a4,0x20
 262:	0000                	unimp
 264:	7d014813          	xori	a6,sp,2000
 268:	0001                	nop
	...

Disassembly of section .debug_line:

0000000000000000 <.debug_line>:
   0:	0092                	slli	ra,ra,0x4
   2:	0000                	unimp
   4:	0005                	c.nop	1
   6:	0008                	0x8
   8:	002e                	c.slli	zero,0xb
   a:	0000                	unimp
   c:	0101                	addi	sp,sp,0
   e:	fb01                	bnez	a4,ffffffffffffff1e <__global_pointer$+0xfffffffffffed71e>
  10:	0d0e                	slli	s10,s10,0x3
  12:	0100                	addi	s0,sp,128
  14:	0101                	addi	sp,sp,0
  16:	0001                	nop
  18:	0000                	unimp
  1a:	0001                	nop
  1c:	0100                	addi	s0,sp,128
  1e:	0101                	addi	sp,sp,0
  20:	021f 0000 0000      	0x21f
  26:	0000                	unimp
  28:	0000                	unimp
  2a:	0102                	c.slli64	sp
  2c:	021f 020f 0011      	0x11020f021f
  32:	0000                	unimp
  34:	1100                	addi	s0,sp,160
  36:	0000                	unimp
  38:	0100                	addi	s0,sp,128
  3a:	0900                	addi	s0,sp,144
  3c:	b002                	fsd	ft0,32(sp)
  3e:	00000103          	lb	sp,0(zero) # 0 <__abi_tag-0x1025c>
  42:	0000                	unimp
  44:	0300                	addi	s0,sp,384
  46:	0131                	addi	sp,sp,12
  48:	04090103          	lb	sp,64(s2) # 1040 <__abi_tag-0xf21c>
  4c:	0100                	addi	s0,sp,128
  4e:	02090203          	lb	tp,32(s2)
  52:	0100                	addi	s0,sp,128
  54:	08090103          	lb	sp,128(s2)
  58:	0100                	addi	s0,sp,128
  5a:	02090103          	lb	sp,32(s2)
  5e:	0100                	addi	s0,sp,128
  60:	02090103          	lb	sp,32(s2)
  64:	0100                	addi	s0,sp,128
  66:	04090103          	lb	sp,64(s2)
  6a:	0100                	addi	s0,sp,128
  6c:	08090103          	lb	sp,128(s2)
  70:	0100                	addi	s0,sp,128
  72:	08090103          	lb	sp,128(s2)
  76:	0100                	addi	s0,sp,128
  78:	02090203          	lb	tp,32(s2)
  7c:	0100                	addi	s0,sp,128
  7e:	04090103          	lb	sp,64(s2)
  82:	0100                	addi	s0,sp,128
  84:	02090c03          	lb	s8,32(s2)
  88:	0100                	addi	s0,sp,128
  8a:	08090203          	lb	tp,128(s2)
  8e:	0100                	addi	s0,sp,128
  90:	0209                	addi	tp,tp,2
  92:	0000                	unimp
  94:	0101                	addi	sp,sp,0
  96:	0072                	c.slli	zero,0x1c
  98:	0000                	unimp
  9a:	0005                	c.nop	1
  9c:	0008                	0x8
  9e:	006a                	c.slli	zero,0x1a
  a0:	0000                	unimp
  a2:	0101                	addi	sp,sp,0
  a4:	fb01                	bnez	a4,ffffffffffffffb4 <__global_pointer$+0xfffffffffffed7b4>
  a6:	0d0e                	slli	s10,s10,0x3
  a8:	0100                	addi	s0,sp,128
  aa:	0101                	addi	sp,sp,0
  ac:	0001                	nop
  ae:	0000                	unimp
  b0:	0001                	nop
  b2:	0100                	addi	s0,sp,128
  b4:	0101                	addi	sp,sp,0
  b6:	071f 0019 0000      	0x19071f
  bc:	0064                	addi	s1,sp,12
  be:	0000                	unimp
  c0:	0072                	c.slli	zero,0x1c
  c2:	0000                	unimp
  c4:	007a                	c.slli	zero,0x1e
  c6:	0000                	unimp
  c8:	0081                	addi	ra,ra,0
  ca:	0000                	unimp
  cc:	00a1                	addi	ra,ra,8
  ce:	0000                	unimp
  d0:	00b1                	addi	ra,ra,12
  d2:	0000                	unimp
  d4:	0102                	c.slli64	sp
  d6:	021f 0a0f 0059      	0x590a0f021f
  dc:	0000                	unimp
  de:	c700                	sw	s0,8(a4)
  e0:	0000                	unimp
  e2:	0100                	addi	s0,sp,128
  e4:	000000cf          	fnmadd.s	ft1,ft0,ft0,ft0,rne
  e8:	dd02                	sw	zero,184(sp)
  ea:	0000                	unimp
  ec:	0200                	addi	s0,sp,256
  ee:	00ec                	addi	a1,sp,76
  f0:	0000                	unimp
  f2:	0000f203          	0xf203
  f6:	0200                	addi	s0,sp,256
  f8:	00fd                	addi	ra,ra,31
  fa:	0000                	unimp
  fc:	0604                	addi	s1,sp,768
  fe:	0001                	nop
 100:	0500                	addi	s0,sp,640
 102:	0059                	c.nop	22
 104:	0000                	unimp
 106:	0b00                	addi	s0,sp,400
 108:	0001                	nop
 10a:	0600                	addi	s0,sp,768
 10c:	0032                	c.slli	zero,0xc
 10e:	0000                	unimp
 110:	0005                	c.nop	1
 112:	0008                	0x8
 114:	002a                	c.slli	zero,0xa
 116:	0000                	unimp
 118:	0101                	addi	sp,sp,0
 11a:	fb01                	bnez	a4,2a <__abi_tag-0x10232>
 11c:	0d0e                	slli	s10,s10,0x3
 11e:	0100                	addi	s0,sp,128
 120:	0101                	addi	sp,sp,0
 122:	0001                	nop
 124:	0000                	unimp
 126:	0001                	nop
 128:	0100                	addi	s0,sp,128
 12a:	0101                	addi	sp,sp,0
 12c:	011f 0019 0000      	0x19011f
 132:	0102                	c.slli64	sp
 134:	021f 020f 0124      	0x124020f021f
 13a:	0000                	unimp
 13c:	2400                	fld	fs0,8(s0)
 13e:	0001                	nop
 140:	0000                	unimp
 142:	00fe                	slli	ra,ra,0x1f
 144:	0000                	unimp
 146:	0005                	c.nop	1
 148:	0008                	0x8
 14a:	00000033          	add	zero,zero,zero
 14e:	0101                	addi	sp,sp,0
 150:	fb01                	bnez	a4,60 <__abi_tag-0x101fc>
 152:	0d0e                	slli	s10,s10,0x3
 154:	0100                	addi	s0,sp,128
 156:	0101                	addi	sp,sp,0
 158:	0001                	nop
 15a:	0000                	unimp
 15c:	0001                	nop
 15e:	0100                	addi	s0,sp,128
 160:	0101                	addi	sp,sp,0
 162:	021f 0019 0000      	0x19021f
 168:	0000012b          	0x12b
 16c:	0102                	c.slli64	sp
 16e:	021f 030f 0120      	0x120030f021f
 174:	0000                	unimp
 176:	2000                	fld	fs0,0(s0)
 178:	0001                	nop
 17a:	0000                	unimp
 17c:	00000167          	jalr	sp,zero # 0 <__abi_tag-0x1025c>
 180:	0501                	addi	a0,a0,0
 182:	0001                	nop
 184:	0209                	addi	tp,tp,2
 186:	0628                	addi	a0,sp,776
 188:	0001                	nop
 18a:	0000                	unimp
 18c:	0000                	unimp
 18e:	0100c403          	lbu	s0,16(ra)
 192:	0305                	addi	t1,t1,1
 194:	00091203          	lh	tp,0(s2)
 198:	0100                	addi	s0,sp,128
 19a:	0105                	addi	sp,sp,1
 19c:	0306                	slli	t1,t1,0x1
 19e:	096e                	slli	s2,s2,0x1b
 1a0:	0000                	unimp
 1a2:	0501                	addi	a0,a0,0
 1a4:	0328                	addi	a0,sp,392
 1a6:	0912                	slli	s2,s2,0x4
 1a8:	0006                	c.slli	zero,0x1
 1aa:	0501                	addi	a0,a0,0
 1ac:	0301                	addi	t1,t1,0
 1ae:	096e                	slli	s2,s2,0x1b
 1b0:	0014                	0x14
 1b2:	0501                	addi	a0,a0,0
 1b4:	0328                	addi	a0,sp,392
 1b6:	0912                	slli	s2,s2,0x4
 1b8:	000a                	c.slli	zero,0x2
 1ba:	0501                	addi	a0,a0,0
 1bc:	01030603          	lb	a2,16(t1)
 1c0:	0409                	addi	s0,s0,2
 1c2:	0100                	addi	s0,sp,128
 1c4:	0805                	addi	a6,a6,1
 1c6:	00090003          	lb	zero,0(s2)
 1ca:	0100                	addi	s0,sp,128
 1cc:	1805                	addi	a6,a6,-31
 1ce:	00090003          	lb	zero,0(s2)
 1d2:	0100                	addi	s0,sp,128
 1d4:	0f05                	addi	t5,t5,1
 1d6:	0306                	slli	t1,t1,0x1
 1d8:	0900                	addi	s0,sp,144
 1da:	000a                	c.slli	zero,0x2
 1dc:	0501                	addi	a0,a0,0
 1de:	04020007          	0x4020007
 1e2:	01030603          	lb	a2,16(t1)
 1e6:	0209                	addi	tp,tp,2
 1e8:	0100                	addi	s0,sp,128
 1ea:	0805                	addi	a6,a6,1
 1ec:	0200                	addi	s0,sp,256
 1ee:	0304                	addi	s1,sp,384
 1f0:	0306                	slli	t1,t1,0x1
 1f2:	0900                	addi	s0,sp,144
 1f4:	0000                	unimp
 1f6:	0501                	addi	a0,a0,0
 1f8:	0021                	c.nop	8
 1fa:	0402                	c.slli64	s0
 1fc:	097f0303          	lb	t1,151(t5)
 200:	0008                	0x8
 202:	0501                	addi	a0,a0,0
 204:	0008                	0x8
 206:	0402                	c.slli64	s0
 208:	09010303          	lb	t1,144(sp) # 12011094 <__global_pointer$+0x11ffe894>
 20c:	0002                	c.slli64	zero
 20e:	0501                	addi	a0,a0,0
 210:	0021                	c.nop	8
 212:	0402                	c.slli64	s0
 214:	7f030603          	lb	a2,2032(t1)
 218:	0209                	addi	tp,tp,2
 21a:	0100                	addi	s0,sp,128
 21c:	1805                	addi	a6,a6,-31
 21e:	0200                	addi	s0,sp,256
 220:	0304                	addi	s1,sp,384
 222:	00090003          	lb	zero,0(s2)
 226:	0100                	addi	s0,sp,128
 228:	0105                	addi	sp,sp,1
 22a:	0306                	slli	t1,t1,0x1
 22c:	0902                	c.slli64	s2
 22e:	0006                	c.slli	zero,0x1
 230:	0601                	addi	a2,a2,0
 232:	12090703          	lb	a4,288(s2)
 236:	0100                	addi	s0,sp,128
 238:	00090a03          	lb	s4,0(s2)
 23c:	0100                	addi	s0,sp,128
 23e:	0209                	addi	tp,tp,2
 240:	0000                	unimp
 242:	0101                	addi	sp,sp,0

Disassembly of section .debug_frame:

0000000000000000 <.debug_frame>:
   0:	000c                	0xc
   2:	0000                	unimp
   4:	ffff                	0xffff
   6:	ffff                	0xffff
   8:	7c010003          	lb	zero,1984(sp)
   c:	0d01                	addi	s10,s10,0
   e:	0002                	c.slli64	zero
  10:	003c                	addi	a5,sp,8
  12:	0000                	unimp
  14:	0000                	unimp
  16:	0000                	unimp
  18:	0628                	addi	a0,sp,776
  1a:	0001                	nop
  1c:	0000                	unimp
  1e:	0000                	unimp
  20:	0058                	addi	a4,sp,4
  22:	0000                	unimp
  24:	0000                	unimp
  26:	0000                	unimp
  28:	0e42                	slli	t3,t3,0x10
  2a:	4440                	lw	s0,12(s0)
  2c:	0488                	addi	a0,sp,576
  2e:	0892                	slli	a7,a7,0x4
  30:	815e                	mv	sp,s7
  32:	8902                	jr	s2
  34:	9306                	add	t1,t1,ra
  36:	940a                	add	s0,s0,sp
  38:	950c                	0x950c
  3a:	640e                	ld	s0,192(sp)
  3c:	42c1                	li	t0,16
  3e:	42c8                	lw	a0,4(a3)
  40:	42c9                	li	t0,18
  42:	42d2                	lw	t0,20(sp)
  44:	42d442d3          	0x42d442d3
  48:	42d5                	li	t0,21
  4a:	000e                	c.slli	zero,0x3
  4c:	0000                	unimp
  4e:	0000                	unimp
  50:	0014                	0x14
  52:	0000                	unimp
  54:	0000                	unimp
  56:	0000                	unimp
  58:	0680                	addi	s0,sp,832
  5a:	0001                	nop
  5c:	0000                	unimp
  5e:	0000                	unimp
  60:	0002                	c.slli64	zero
  62:	0000                	unimp
  64:	0000                	unimp
	...

Disassembly of section .debug_str:

0000000000000000 <.debug_str>:
   0:	72617473          	csrrci	s0,0x726,2
   4:	2e74                	fld	fa3,216(a2)
   6:	682f0053          	0x682f0053
   a:	2f656d6f          	jal	s10,56300 <__global_pointer$+0x43b00>
   e:	6f68                	ld	a0,216(a4)
  10:	6168                	ld	a0,192(a0)
  12:	6369                	lui	t1,0x1a
  14:	74676e6f          	jal	t3,7675a <__global_pointer$+0x63f5a>
  18:	7568                	ld	a0,232(a0)
  1a:	6e61                	lui	t3,0x18
  1c:	7469472f          	0x7469472f
  20:	7548                	ld	a0,168(a0)
  22:	2f62                	fld	ft10,24(sp)
  24:	6972                	ld	s2,280(sp)
  26:	2d766373          	csrrsi	t1,0x2d7,12
  2a:	2d756e67          	0x2d756e67
  2e:	6f74                	ld	a3,216(a4)
  30:	68636c6f          	jal	s8,366b6 <__global_pointer$+0x23eb6>
  34:	6961                	lui	s2,0x18
  36:	2f6e                	fld	ft10,216(sp)
  38:	6972                	ld	s2,280(sp)
  3a:	2d766373          	csrrsi	t1,0x2d7,12
  3e:	62696c67          	0x62696c67
  42:	73632f63          	0x73632f63
  46:	0075                	c.nop	29
  48:	20554e47          	fmsub.s	ft8,fa0,ft5,ft4,rmm
  4c:	5341                	li	t1,-16
  4e:	3220                	fld	fs0,96(a2)
  50:	332e                	fld	ft6,232(sp)
  52:	6f730037          	lui	zero,0x6f730
  56:	64616b63          	bltu	sp,t1,6ac <__abi_tag-0xfbb0>
  5a:	7264                	ld	s1,224(a2)
  5c:	695f 6f73 7300      	0x73006f73695f
  62:	616b636f          	jal	t1,b6678 <__global_pointer$+0xa3e78>
  66:	6464                	ld	s1,200(s0)
  68:	5f72                	lw	t5,60(sp)
  6a:	6e69                	lui	t3,0x1a
  6c:	7261                	lui	tp,0xffff8
  6e:	0070                	addi	a2,sp,12
  70:	5f5f 6975 746e      	0x746e69755f5f
  76:	745f3233          	0x745f3233
  7a:	7300                	ld	s0,32(a4)
  7c:	6e69                	lui	t3,0x1a
  7e:	5f36                	lw	t5,108(sp)
  80:	6c66                	ld	s8,88(sp)
  82:	6e69776f          	jal	a4,97768 <__global_pointer$+0x84f68>
  86:	6f66                	ld	t5,88(sp)
  88:	7300                	ld	s0,32(a4)
  8a:	616b636f          	jal	t1,b66a0 <__global_pointer$+0xa3ea0>
  8e:	6464                	ld	s1,200(s0)
  90:	5f72                	lw	t5,60(sp)
  92:	6e75                	lui	t3,0x1d
  94:	5f00                	lw	s0,56(a4)
  96:	755f 6e69 3174      	0x31746e69755f
  9c:	5f36                	lw	t5,108(sp)
  9e:	0074                	addi	a3,sp,12
  a0:	726f6873          	csrrsi	a6,0x726,30
  a4:	2074                	fld	fa3,192(s0)
  a6:	6e69                	lui	t3,0x1a
  a8:	0074                	addi	a3,sp,12
  aa:	6b636f73          	csrrsi	t5,0x6b6,6
  ae:	6461                	lui	s0,0x18
  b0:	7264                	ld	s1,224(a2)
  b2:	695f 7870 7300      	0x73007870695f
  b8:	6e69                	lui	t3,0x1a
  ba:	5f36                	lw	t5,108(sp)
  bc:	706f6373          	csrrsi	t1,0x706,30
  c0:	5f65                	li	t5,-7
  c2:	6469                	lui	s0,0x1a
  c4:	7300                	ld	s0,32(a4)
  c6:	6e69                	lui	t3,0x1a
  c8:	665f 6d61 6c69      	0x6c696d61665f
  ce:	0079                	c.nop	30
  d0:	6c45                	lui	s8,0x11
  d2:	3666                	fld	fa2,120(sp)
  d4:	5f34                	lw	a3,120(a4)
  d6:	64726f57          	0x64726f57
  da:	6e00                	ld	s0,24(a2)
  dc:	6468                	ld	a0,200(s0)
  de:	0072                	c.slli	zero,0x1c
  e0:	366e6973          	csrrsi	s2,0x366,28
  e4:	705f 726f 0074      	0x74726f705f
  ea:	5f5f 6e69 5f36      	0x5f366e695f5f
  f0:	0075                	c.nop	29
  f2:	6b636f73          	csrrsi	t5,0x6b6,6
  f6:	6461                	lui	s0,0x18
  f8:	7264                	ld	s1,224(a2)
  fa:	6e5f 0073 6f6c      	0x6f6c00736e5f
 100:	676e                	ld	a4,216(sp)
 102:	6c20                	ld	s0,88(s0)
 104:	20676e6f          	jal	t3,7630a <__global_pointer$+0x63b0a>
 108:	6e69                	lui	t3,0x1a
 10a:	0074                	addi	a3,sp,12
 10c:	6f6c                	ld	a1,216(a4)
 10e:	676e                	ld	a4,216(sp)
 110:	6c20                	ld	s0,88(s0)
 112:	20676e6f          	jal	t3,76318 <__global_pointer$+0x63b18>
 116:	6e75                	lui	t3,0x1d
 118:	6e676973          	csrrsi	s2,0x6e6,14
 11c:	6465                	lui	s0,0x19
 11e:	6920                	ld	s0,80(a0)
 120:	746e                	ld	s0,248(sp)
 122:	5f00                	lw	s0,56(a4)
 124:	755f 5f36 6461      	0x64615f36755f
 12a:	7264                	ld	s1,224(a2)
 12c:	3631                	addiw	a2,a2,-20
 12e:	5f00                	lw	s0,56(a4)
 130:	755f 6e69 3874      	0x38746e69755f
 136:	745f 7300 6e69      	0x6e697300745f
 13c:	615f 6464 0072      	0x726464615f
 142:	616e                	ld	sp,216(sp)
 144:	656d                	lui	a0,0x1b
 146:	6c00                	ld	s0,24(s0)
 148:	20676e6f          	jal	t3,7634e <__global_pointer$+0x63b4e>
 14c:	6f64                	ld	s1,216(a4)
 14e:	6275                	lui	tp,0x1d
 150:	656c                	ld	a1,200(a0)
 152:	7300                	ld	s0,32(a4)
 154:	5f61                	li	t5,-8
 156:	6166                	ld	sp,88(sp)
 158:	696d                	lui	s2,0x1b
 15a:	796c                	ld	a1,240(a0)
 15c:	745f 7500 736e      	0x736e7500745f
 162:	6769                	lui	a4,0x1a
 164:	656e                	ld	a0,216(sp)
 166:	2064                	fld	fs1,192(s0)
 168:	72616863          	bltu	sp,t1,898 <__abi_tag-0xf9c4>
 16c:	7300                	ld	s0,32(a4)
 16e:	6e69                	lui	t3,0x1a
 170:	7a5f 7265 006f      	0x6f72657a5f
 176:	5f6e                	lw	t5,248(sp)
 178:	616e                	ld	sp,216(sp)
 17a:	656d                	lui	a0,0x1b
 17c:	73007a73          	csrrci	s4,0x730,0
 180:	616b636f          	jal	t1,b6796 <__global_pointer$+0xa3f96>
 184:	6464                	ld	s1,200(s0)
 186:	5f72                	lw	t5,60(sp)
 188:	6e69                	lui	t3,0x1a
 18a:	0036                	c.slli	zero,0xd
 18c:	5f6e                	lw	t5,248(sp)
 18e:	6564                	ld	s1,200(a0)
 190:	7a736373          	csrrsi	t1,0x7a7,6
 194:	7300                	ld	s0,32(a4)
 196:	615f 6464 0072      	0x726464615f
 19c:	366e6973          	csrrsi	s2,0x366,28
 1a0:	665f 6d61 6c69      	0x6c696d61665f
 1a6:	0079                	c.nop	30
 1a8:	366e6973          	csrrsi	s2,0x366,28
 1ac:	615f 6464 0072      	0x726464615f
 1b2:	645f6173          	csrrsi	sp,0x645,30
 1b6:	7461                	lui	s0,0xffff8
 1b8:	0061                	c.nop	24
 1ba:	726f6873          	csrrsi	a6,0x726,30
 1be:	2074                	fld	fa3,192(s0)
 1c0:	6e75                	lui	t3,0x1d
 1c2:	6e676973          	csrrsi	s2,0x6e6,14
 1c6:	6465                	lui	s0,0x19
 1c8:	6920                	ld	s0,80(a0)
 1ca:	746e                	ld	s0,248(sp)
 1cc:	7300                	ld	s0,32(a4)
 1ce:	616b636f          	jal	t1,b67e4 <__global_pointer$+0xa3fe4>
 1d2:	6464                	ld	s1,200(s0)
 1d4:	5f72                	lw	t5,60(sp)
 1d6:	6c64                	ld	s1,216(s0)
 1d8:	5f00                	lw	s0,56(a4)
 1da:	6f42                	ld	t5,16(sp)
 1dc:	69006c6f          	jal	s8,686c <__abi_tag-0x99f0>
 1e0:	5f6e                	lw	t5,248(sp)
 1e2:	6461                	lui	s0,0x18
 1e4:	7264                	ld	s1,224(a2)
 1e6:	745f 7300 636f      	0x636f7300745f
 1ec:	6464616b          	0x6464616b
 1f0:	5f72                	lw	t5,60(sp)
 1f2:	6f65                	lui	t5,0x19
 1f4:	006e                	c.slli	zero,0x1b
 1f6:	5f5f 6874 6572      	0x657268745f5f
 1fc:	6461                	lui	s0,0x18
 1fe:	735f 6c65 0066      	0x666c65735f
 204:	5f6e                	lw	t5,248(sp)
 206:	7974                	ld	a3,240(a0)
 208:	6570                	ld	a2,200(a0)
 20a:	7300                	ld	s0,32(a4)
 20c:	616b636f          	jal	t1,b6822 <__global_pointer$+0xa4022>
 210:	6464                	ld	s1,200(s0)
 212:	5f72                	lw	t5,60(sp)
 214:	3278                	fld	fa4,224(a2)
 216:	0035                	c.nop	13
 218:	20554e47          	fmsub.s	ft8,fa0,ft5,ft4,rmm
 21c:	20313143          	fmadd.s	ft2,ft2,ft3,ft4,rup
 220:	3131                	addiw	sp,sp,-20
 222:	312e                	fld	ft2,232(sp)
 224:	302e                	fld	ft0,232(sp)
 226:	2d20                	fld	fs0,88(a0)
 228:	636d                	lui	t1,0x1b
 22a:	6f6d                	lui	t5,0x1b
 22c:	6564                	ld	s1,200(a0)
 22e:	3d6c                	fld	fa1,248(a0)
 230:	656d                	lui	a0,0x1b
 232:	6c64                	ld	s1,216(s0)
 234:	2d20776f          	jal	a4,7506 <__abi_tag-0x8d56>
 238:	746d                	lui	s0,0xffffb
 23a:	6e75                	lui	t3,0x1d
 23c:	3d65                	addiw	s10,s10,-7
 23e:	6f72                	ld	t5,280(sp)
 240:	74656b63          	bltu	a0,t1,996 <__abi_tag-0xf8c6>
 244:	2d20                	fld	fs0,88(a0)
 246:	616d                	addi	sp,sp,240
 248:	6372                	ld	t1,280(sp)
 24a:	3d68                	fld	fa0,248(a0)
 24c:	7672                	ld	a2,312(sp)
 24e:	3436                	fld	fs0,360(sp)
 250:	6d69                	lui	s10,0x1a
 252:	6661                	lui	a2,0x18
 254:	6364                	ld	s1,192(a4)
 256:	2d20                	fld	fs0,88(a0)
 258:	616d                	addi	sp,sp,240
 25a:	6962                	ld	s2,24(sp)
 25c:	6c3d                	lui	s8,0xf
 25e:	3670                	fld	fa2,232(a2)
 260:	6434                	ld	a3,72(s0)
 262:	2d20                	fld	fs0,88(a0)
 264:	616d                	addi	sp,sp,240
 266:	6372                	ld	t1,280(sp)
 268:	3d68                	fld	fa0,248(a0)
 26a:	7672                	ld	a2,312(sp)
 26c:	3436                	fld	fs0,360(sp)
 26e:	6d69                	lui	s10,0x1a
 270:	6661                	lui	a2,0x18
 272:	6364                	ld	s1,192(a4)
 274:	2d20                	fld	fs0,88(a0)
 276:	4f2d2067          	0x4f2d2067
 27a:	2032                	fld	ft0,264(sp)
 27c:	732d                	lui	t1,0xfffeb
 27e:	6474                	ld	a3,200(s0)
 280:	673d                	lui	a4,0xf
 282:	756e                	ld	a0,248(sp)
 284:	3131                	addiw	sp,sp,-20
 286:	2d20                	fld	fs0,88(a0)
 288:	6766                	ld	a4,88(sp)
 28a:	756e                	ld	a0,248(sp)
 28c:	3938                	fld	fa4,112(a0)
 28e:	692d                	lui	s2,0xb
 290:	6c6e                	ld	s8,216(sp)
 292:	6e69                	lui	t3,0x1a
 294:	2065                	0x2065
 296:	662d                	lui	a2,0xb
 298:	656d                	lui	a0,0x1b
 29a:	6772                	ld	a4,280(sp)
 29c:	2d65                	addiw	s10,s10,25
 29e:	6c61                	lui	s8,0x18
 2a0:	2d6c                	fld	fa1,216(a0)
 2a2:	736e6f63          	bltu	t3,s6,9e0 <__abi_tag-0xf87c>
 2a6:	6174                	ld	a3,192(a0)
 2a8:	746e                	ld	s0,248(sp)
 2aa:	662d2073          	csrs	0x662,s10
 2ae:	6f72                	ld	t5,280(sp)
 2b0:	6e75                	lui	t3,0x1d
 2b2:	6964                	ld	s1,208(a0)
 2b4:	676e                	ld	a4,216(sp)
 2b6:	6d2d                	lui	s10,0xb
 2b8:	7461                	lui	s0,0xffff8
 2ba:	2068                	fld	fa0,192(s0)
 2bc:	662d                	lui	a2,0xb
 2be:	616d                	addi	sp,sp,240
 2c0:	6874                	ld	a3,208(s0)
 2c2:	652d                	lui	a0,0xb
 2c4:	7272                	ld	tp,312(sp)
 2c6:	6f6e                	ld	t5,216(sp)
 2c8:	2d20                	fld	fs0,88(a0)
 2ca:	6e66                	ld	t3,88(sp)
 2cc:	74732d6f          	jal	s10,33212 <__global_pointer$+0x20a12>
 2d0:	6361                	lui	t1,0x18
 2d2:	72702d6b          	0x72702d6b
 2d6:	6365746f          	jal	s0,5790c <__global_pointer$+0x4510c>
 2da:	6f74                	ld	a3,216(a4)
 2dc:	2072                	fld	ft0,280(sp)
 2de:	662d                	lui	a2,0xb
 2e0:	6c74                	ld	a3,216(s0)
 2e2:	6f6d2d73          	csrrs	s10,0x6f6,s10
 2e6:	6564                	ld	s1,200(a0)
 2e8:	3d6c                	fld	fa1,248(a0)
 2ea:	6e69                	lui	t3,0x1a
 2ec:	7469                	lui	s0,0xffffa
 2ee:	6169                	addi	sp,sp,208
 2f0:	2d6c                	fld	fa1,216(a0)
 2f2:	7865                	lui	a6,0xffff9
 2f4:	6365                	lui	t1,0x19
 2f6:	7300                	ld	s0,32(a4)
 2f8:	6e69                	lui	t3,0x1a
 2fa:	705f 726f 0074      	0x74726f705f
 300:	5f5f 6e69 3374      	0x33746e695f5f
 306:	5f32                	lw	t5,44(sp)
 308:	0074                	addi	a3,sp,12
 30a:	6e69                	lui	t3,0x1a
 30c:	705f 726f 5f74      	0x5f74726f705f
 312:	0074                	addi	a3,sp,12
 314:	665f6173          	csrrsi	sp,0x665,30
 318:	6d61                	lui	s10,0x18
 31a:	6c69                	lui	s8,0x1a
 31c:	0079                	c.nop	30
 31e:	6b636f73          	csrrsi	t5,0x6b6,6
 322:	6461                	lui	s0,0x18
 324:	7264                	ld	s1,224(a2)
 326:	615f 0074 5f5f      	0x5f5f0074615f
 32c:	3675                	addiw	a2,a2,-3
 32e:	615f 6464 3372      	0x33726464615f
 334:	0032                	c.slli	zero,0xc
 336:	5f5f 3675 615f      	0x615f36755f5f
 33c:	6464                	ld	s1,200(s0)
 33e:	3872                	fld	fa6,312(sp)
 340:	5f00                	lw	s0,56(a4)
 342:	615f 6962 745f      	0x745f6962615f
 348:	6761                	lui	a4,0x18
 34a:	7300                	ld	s0,32(a4)
 34c:	616b636f          	jal	t1,b6962 <__global_pointer$+0xa4162>
 350:	6464                	ld	s1,200(s0)
 352:	5f72                	lw	t5,60(sp)
 354:	6e69                	lui	t3,0x1a
 356:	4500                	lw	s0,8(a0)
 358:	666c                	ld	a1,200(a2)
 35a:	3436                	fld	fs0,360(sp)
 35c:	4e5f 6468 0072      	0x7264684e5f
 362:	6b636f73          	csrrsi	t5,0x6b6,6
 366:	6461                	lui	s0,0x18
 368:	7264                	ld	s1,224(a2)
 36a:	7300                	ld	s0,32(a4)
 36c:	616b636f          	jal	t1,b6982 <__global_pointer$+0xa4182>
 370:	6464                	ld	s1,200(s0)
 372:	5f72                	lw	t5,60(sp)
 374:	7861                	lui	a6,0xffff8
 376:	3532                	fld	fa0,296(sp)
 378:	6400                	ld	s0,8(s0)
 37a:	7365                	lui	t1,0xffff9
 37c:	495f0063          	beq	t5,s5,7fc <__abi_tag-0xfa60>
 380:	74735f4f          	0x74735f4f
 384:	6964                	ld	s1,208(a0)
 386:	5f6e                	lw	t5,248(sp)
 388:	7375                	lui	t1,0xffffd
 38a:	6465                	lui	s0,0x19
 38c:	4700                	lw	s0,8(a4)
 38e:	554e                	lw	a0,240(sp)
 390:	4320                	lw	s0,64(a4)
 392:	3131                	addiw	sp,sp,-20
 394:	3120                	fld	fs0,96(a0)
 396:	2e31                	addiw	t3,t3,12
 398:	2e31                	addiw	t3,t3,12
 39a:	2030                	fld	fa2,64(s0)
 39c:	6d2d                	lui	s10,0xb
 39e:	646f6d63          	bltu	t5,t1,9f8 <__abi_tag-0xf864>
 3a2:	6c65                	lui	s8,0x19
 3a4:	6d3d                	lui	s10,0xf
 3a6:	6465                	lui	s0,0x19
 3a8:	6f6c                	ld	a1,216(a4)
 3aa:	6d2d2077          	0x6d2d2077
 3ae:	7574                	ld	a3,232(a0)
 3b0:	656e                	ld	a0,216(sp)
 3b2:	723d                	lui	tp,0xfffef
 3b4:	656b636f          	jal	t1,b6a0a <__global_pointer$+0xa420a>
 3b8:	2074                	fld	fa3,192(s0)
 3ba:	6d2d                	lui	s10,0xb
 3bc:	7261                	lui	tp,0xffff8
 3be:	723d6863          	bltu	s10,gp,aee <__abi_tag-0xf76e>
 3c2:	3676                	fld	fa2,376(sp)
 3c4:	6934                	ld	a3,80(a0)
 3c6:	616d                	addi	sp,sp,240
 3c8:	6466                	ld	s0,88(sp)
 3ca:	6d2d2063          	0x6d2d2063
 3ce:	6261                	lui	tp,0x18
 3d0:	3d69                	addiw	s10,s10,-6
 3d2:	706c                	ld	a1,224(s0)
 3d4:	3436                	fld	fs0,360(sp)
 3d6:	2064                	fld	fs1,192(s0)
 3d8:	6d2d                	lui	s10,0xb
 3da:	7261                	lui	tp,0xffff8
 3dc:	723d6863          	bltu	s10,gp,b0c <__abi_tag-0xf750>
 3e0:	3676                	fld	fa2,376(sp)
 3e2:	6934                	ld	a3,80(a0)
 3e4:	616d                	addi	sp,sp,240
 3e6:	6466                	ld	s0,88(sp)
 3e8:	672d2063          	0x672d2063
 3ec:	2d20                	fld	fs0,88(a0)
 3ee:	2d20324f          	0x2d20324f
 3f2:	3d647473          	csrrci	s0,0x3d6,8
 3f6:	31756e67          	0x31756e67
 3fa:	2031                	0x2031
 3fc:	662d                	lui	a2,0xb
 3fe:	38756e67          	0x38756e67
 402:	2d39                	addiw	s10,s10,14
 404:	6e69                	lui	t3,0x1a
 406:	696c                	ld	a1,208(a0)
 408:	656e                	ld	a0,216(sp)
 40a:	2d20                	fld	fs0,88(a0)
 40c:	6d66                	ld	s10,88(sp)
 40e:	7265                	lui	tp,0xffff9
 410:	612d6567          	0x612d6567
 414:	6c6c                	ld	a1,216(s0)
 416:	632d                	lui	t1,0xb
 418:	74736e6f          	jal	t3,3735e <__global_pointer$+0x24b5e>
 41c:	6e61                	lui	t3,0x18
 41e:	7374                	ld	a3,224(a4)
 420:	2d20                	fld	fs0,88(a0)
 422:	7266                	ld	tp,120(sp)
 424:	646e756f          	jal	a0,e7a6a <__global_pointer$+0xd526a>
 428:	6e69                	lui	t3,0x1a
 42a:	616d2d67          	0x616d2d67
 42e:	6874                	ld	a3,208(s0)
 430:	2d20                	fld	fs0,88(a0)
 432:	6d66                	ld	s10,88(sp)
 434:	7461                	lui	s0,0xffff8
 436:	2d68                	fld	fa0,216(a0)
 438:	7265                	lui	tp,0xffff9
 43a:	6e72                	ld	t3,280(sp)
 43c:	662d206f          	j	d2a9e <__global_pointer$+0xc029e>
 440:	4950                	lw	a2,20(a0)
 442:	662d2043          	fmadd.q	ft0,fs10,ft2,fa2,rdn
 446:	6f6e                	ld	t5,216(sp)
 448:	732d                	lui	t1,0xfffeb
 44a:	6174                	ld	a3,192(a0)
 44c:	702d6b63          	bltu	s10,sp,b62 <__abi_tag-0xf6fa>
 450:	6f72                	ld	t5,280(sp)
 452:	6574                	ld	a3,200(a0)
 454:	726f7463          	bgeu	t5,t1,b7c <__abi_tag-0xf6e0>
 458:	2d20                	fld	fs0,88(a0)
 45a:	7466                	ld	s0,120(sp)
 45c:	736c                	ld	a1,224(a4)
 45e:	6d2d                	lui	s10,0xb
 460:	6c65646f          	jal	s0,56b26 <__global_pointer$+0x44326>
 464:	693d                	lui	s2,0xf
 466:	696e                	ld	s2,216(sp)
 468:	6974                	ld	a3,208(a0)
 46a:	6c61                	lui	s8,0x18
 46c:	652d                	lui	a0,0xb
 46e:	6578                	ld	a4,200(a0)
 470:	5f5f0063          	beq	t5,s5,a50 <__abi_tag-0xf80c>
 474:	6e69                	lui	t3,0x1a
 476:	7469                	lui	s0,0xffffa
 478:	615f 7272 7961      	0x79617272615f
 47e:	735f 6174 7472      	0x74726174735f
 484:	7300                	ld	s0,32(a4)
 486:	7a69                	lui	s4,0xffffa
 488:	5f65                	li	t5,-7
 48a:	0074                	addi	a3,sp,12
 48c:	6e65                	lui	t3,0x19
 48e:	7076                	0x7076
 490:	5f00                	lw	s0,56(a4)
 492:	6c5f 6269 5f63      	0x5f6362696c5f
 498:	5f757363          	bgeu	a0,s7,a7e <__abi_tag-0xf7de>
 49c:	6966                	ld	s2,88(sp)
 49e:	696e                	ld	s2,216(sp)
 4a0:	6100                	ld	s0,0(a0)
 4a2:	6772                	ld	a4,280(sp)
 4a4:	69730063          	beq	t1,s7,b24 <__abi_tag-0xf738>
 4a8:	657a                	ld	a0,408(sp)
 4aa:	5f00                	lw	s0,56(a4)
 4ac:	6c5f 6269 5f63      	0x5f6362696c5f
 4b2:	5f757363          	bgeu	a0,s7,a98 <__abi_tag-0xf7c4>
 4b6:	6e69                	lui	t3,0x1a
 4b8:	7469                	lui	s0,0xffffa
 4ba:	6100                	ld	s0,0(a0)
 4bc:	6772                	ld	a4,280(sp)
 4be:	0076                	c.slli	zero,0x1d
 4c0:	5f5f 6e69 7469      	0x74696e695f5f
 4c6:	615f 7272 7961      	0x79617272615f
 4cc:	655f 646e       	0x646e655f

Disassembly of section .debug_line_str:

0000000000000000 <.debug_line_str>:
   0:	2e2e                	fld	ft8,200(sp)
   2:	7379732f          	0x7379732f
   6:	6564                	ld	s1,200(a0)
   8:	7370                	ld	a2,224(a4)
   a:	7369722f          	0x7369722f
   e:	73007663          	bgeu	zero,a6,73a <__abi_tag-0xfb22>
  12:	6174                	ld	a3,192(a0)
  14:	7472                	ld	s0,312(sp)
  16:	532e                	lw	t1,232(sp)
  18:	2f00                	fld	fs0,24(a4)
  1a:	6f68                	ld	a0,216(a4)
  1c:	656d                	lui	a0,0x1b
  1e:	686f682f          	0x686f682f
  22:	6961                	lui	s2,0x18
  24:	676e6f63          	bltu	t3,s6,6a2 <__abi_tag-0xfbba>
  28:	6874                	ld	a3,208(s0)
  2a:	6175                	addi	sp,sp,368
  2c:	2f6e                	fld	ft10,216(sp)
  2e:	48746947          	fmsub.s	fs2,fs0,ft7,fs1,unknown
  32:	6275                	lui	tp,0x1d
  34:	7369722f          	0x7369722f
  38:	672d7663          	bgeu	s10,s2,6a4 <__abi_tag-0xfbb8>
  3c:	756e                	ld	a0,248(sp)
  3e:	742d                	lui	s0,0xfffeb
  40:	636c6f6f          	jal	t5,c6676 <__global_pointer$+0xb3e76>
  44:	6168                	ld	a0,192(a0)
  46:	6e69                	lui	t3,0x1a
  48:	7369722f          	0x7369722f
  4c:	672d7663          	bgeu	s10,s2,6b8 <__abi_tag-0xfba4>
  50:	696c                	ld	a1,208(a0)
  52:	6362                	ld	t1,24(sp)
  54:	7573632f          	0x7573632f
  58:	6100                	ld	s0,0(a0)
  5a:	6962                	ld	s2,24(sp)
  5c:	6e2d                	lui	t3,0xb
  5e:	2e65746f          	jal	s0,57344 <__global_pointer$+0x44b44>
  62:	2e2e0063          	beq	t3,sp,342 <__abi_tag-0xff1a>
  66:	736f702f          	0x736f702f
  6a:	7869                	lui	a6,0xffffa
  6c:	7469622f          	0x7469622f
  70:	2e2e0073          	0x2e2e0073
  74:	7469622f          	0x7469622f
  78:	2e2e0073          	0x2e2e0073
  7c:	666c652f          	0x666c652f
  80:	2e00                	fld	fs0,24(a2)
  82:	2f2e                	fld	ft10,200(sp)
  84:	64737973          	csrrci	s2,0x647,6
  88:	7065                	c.lui	zero,0xffff9
  8a:	6e752f73          	csrrs	t5,0x6e7,a0
  8e:	7869                	lui	a6,0xffffa
  90:	7379732f          	0x7379732f
  94:	2f76                	fld	ft10,344(sp)
  96:	696c                	ld	a1,208(a0)
  98:	756e                	ld	a0,248(sp)
  9a:	2f78                	fld	fa4,216(a4)
  9c:	6962                	ld	s2,24(sp)
  9e:	7374                	ld	a3,224(a4)
  a0:	2e00                	fld	fs0,24(a2)
  a2:	2f2e                	fld	ft10,200(sp)
  a4:	6e69                	lui	t3,0x1a
  a6:	7465                	lui	s0,0xffff9
  a8:	74656e2f          	0x74656e2f
  ac:	6e69                	lui	t3,0x1a
  ae:	7465                	lui	s0,0xffff9
  b0:	2e00                	fld	fs0,24(a2)
  b2:	2f2e                	fld	ft10,200(sp)
  b4:	64737973          	csrrci	s2,0x647,6
  b8:	7065                	c.lui	zero,0xffff9
  ba:	69722f73          	csrrs	t5,0x697,tp
  be:	2f766373          	csrrsi	t1,0x2f7,12
  c2:	706e                	0x706e
  c4:	6c74                	ld	a3,216(s0)
  c6:	7400                	ld	s0,40(s0)
  c8:	7079                	c.lui	zero,0xffffe
  ca:	7365                	lui	t1,0xffff9
  cc:	682e                	ld	a6,200(sp)
  ce:	7300                	ld	s0,32(a4)
  d0:	6474                	ld	a3,200(s0)
  d2:	6e69                	lui	t3,0x1a
  d4:	2d74                	fld	fa3,216(a0)
  d6:	6e69                	lui	t3,0x1a
  d8:	6e74                	ld	a3,216(a2)
  da:	682e                	ld	a6,200(sp)
  dc:	7300                	ld	s0,32(a4)
  de:	6474                	ld	a3,200(s0)
  e0:	6e69                	lui	t3,0x1a
  e2:	2d74                	fld	fa3,216(a0)
  e4:	6975                	lui	s2,0x1d
  e6:	746e                	ld	s0,248(sp)
  e8:	2e6e                	fld	ft8,216(sp)
  ea:	0068                	addi	a0,sp,12
  ec:	6c65                	lui	s8,0x19
  ee:	2e66                	fld	ft8,88(sp)
  f0:	0068                	addi	a0,sp,12
  f2:	6b636f73          	csrrsi	t5,0x6b6,6
  f6:	6461                	lui	s0,0x18
  f8:	7264                	ld	s1,224(a2)
  fa:	682e                	ld	a6,200(sp)
  fc:	7300                	ld	s0,32(a4)
  fe:	656b636f          	jal	t1,b6754 <__global_pointer$+0xa3f54>
 102:	2e74                	fld	fa3,216(a2)
 104:	0068                	addi	a0,sp,12
 106:	6e69                	lui	t3,0x1a
 108:	682e                	ld	a6,200(sp)
 10a:	7400                	ld	s0,40(s0)
 10c:	736c                	ld	a1,224(a4)
 10e:	682e                	ld	a6,200(sp)
 110:	7300                	ld	s0,32(a4)
 112:	6174                	ld	a3,192(a0)
 114:	6974                	ld	a3,208(a0)
 116:	65722d63          	0x65722d63
 11a:	6f6c                	ld	a1,216(a4)
 11c:	00632e63          	0x632e63
 120:	6c65                	lui	s8,0x19
 122:	2d66                	fld	fs10,88(sp)
 124:	6e69                	lui	t3,0x1a
 126:	7469                	lui	s0,0xffffa
 128:	632e                	ld	t1,200(sp)
 12a:	2f00                	fld	fs0,24(a4)
 12c:	2f74706f          	j	47c22 <__global_pointer$+0x35422>
 130:	6972                	ld	s2,280(sp)
 132:	2f766373          	csrrsi	t1,0x2f7,12
 136:	696c                	ld	a1,208(a0)
 138:	2f62                	fld	ft10,24(sp)
 13a:	2f636367          	0x2f636367
 13e:	6972                	ld	s2,280(sp)
 140:	36766373          	csrrsi	t1,0x367,12
 144:	2d34                	fld	fa3,88(a0)
 146:	6e75                	lui	t3,0x1d
 148:	776f6e6b          	0x776f6e6b
 14c:	2d6e                	fld	fs10,216(sp)
 14e:	696c                	ld	a1,208(a0)
 150:	756e                	ld	a0,248(sp)
 152:	2d78                	fld	fa4,216(a0)
 154:	2f756e67          	0x2f756e67
 158:	3131                	addiw	sp,sp,-20
 15a:	312e                	fld	ft2,232(sp)
 15c:	302e                	fld	ft0,232(sp)
 15e:	636e692f          	0x636e692f
 162:	756c                	ld	a1,232(a0)
 164:	6564                	ld	s1,200(a0)
 166:	7300                	ld	s0,32(a4)
 168:	6474                	ld	a3,200(s0)
 16a:	6564                	ld	s1,200(a0)
 16c:	2e66                	fld	ft8,88(sp)
 16e:	0068                	addi	a0,sp,12

Disassembly of section .debug_loclists:

0000000000000000 <.debug_loclists>:
   0:	0110                	addi	a2,sp,128
   2:	0000                	unimp
   4:	0005                	c.nop	1
   6:	0008                	0x8
   8:	0000                	unimp
   a:	0000                	unimp
   c:	01062807          	flw	fa6,16(a2) # b010 <__abi_tag-0x524c>
  10:	0000                	unimp
  12:	0000                	unimp
  14:	5c00                	lw	s0,56(s0)
  16:	0106                	slli	sp,sp,0x1
  18:	0000                	unimp
  1a:	0000                	unimp
  1c:	0100                	addi	s0,sp,128
  1e:	075a                	slli	a4,a4,0x16
  20:	065c                	addi	a5,sp,772
  22:	0001                	nop
  24:	0000                	unimp
  26:	0000                	unimp
  28:	0680                	addi	s0,sp,832
  2a:	0001                	nop
  2c:	0000                	unimp
  2e:	0000                	unimp
  30:	a304                	fsd	fs1,0(a4)
  32:	5a01                	li	s4,-32
  34:	009f 2807 0106      	0x1062807009f
  3a:	0000                	unimp
  3c:	0000                	unimp
  3e:	5c00                	lw	s0,56(s0)
  40:	0106                	slli	sp,sp,0x1
  42:	0000                	unimp
  44:	0000                	unimp
  46:	0100                	addi	s0,sp,128
  48:	065c075b          	0x65c075b
  4c:	0001                	nop
  4e:	0000                	unimp
  50:	0000                	unimp
  52:	066e                	slli	a2,a2,0x1b
  54:	0001                	nop
  56:	0000                	unimp
  58:	0000                	unimp
  5a:	6401                	0x6401
  5c:	01066e07          	0x1066e07
  60:	0000                	unimp
  62:	0000                	unimp
  64:	8000                	0x8000
  66:	0106                	slli	sp,sp,0x1
  68:	0000                	unimp
  6a:	0000                	unimp
  6c:	0400                	addi	s0,sp,512
  6e:	9f5b01a3          	sb	s5,-1565(s6)
  72:	0700                	addi	s0,sp,896
  74:	0628                	addi	a0,sp,776
  76:	0001                	nop
  78:	0000                	unimp
  7a:	0000                	unimp
  7c:	065c                	addi	a5,sp,772
  7e:	0001                	nop
  80:	0000                	unimp
  82:	0000                	unimp
  84:	5c01                	li	s8,-32
  86:	01065c07          	0x1065c07
  8a:	0000                	unimp
  8c:	0000                	unimp
  8e:	6e00                	ld	s0,24(a2)
  90:	0106                	slli	sp,sp,0x1
  92:	0000                	unimp
  94:	0000                	unimp
  96:	0100                	addi	s0,sp,128
  98:	0765                	addi	a4,a4,25
  9a:	066e                	slli	a2,a2,0x1b
  9c:	0001                	nop
  9e:	0000                	unimp
  a0:	0000                	unimp
  a2:	0680                	addi	s0,sp,832
  a4:	0001                	nop
  a6:	0000                	unimp
  a8:	0000                	unimp
  aa:	a304                	fsd	fs1,0(a4)
  ac:	5c01                	li	s8,-32
  ae:	009f 5007 0106      	0x1065007009f
  b4:	0000                	unimp
  b6:	0000                	unimp
  b8:	7600                	ld	s0,40(a2)
  ba:	0106                	slli	sp,sp,0x1
  bc:	0000                	unimp
  be:	0000                	unimp
  c0:	0100                	addi	s0,sp,128
  c2:	0062                	c.slli	zero,0x18
  c4:	01065007          	0x1065007
  c8:	0000                	unimp
  ca:	0000                	unimp
  cc:	5c00                	lw	s0,56(s0)
  ce:	0106                	slli	sp,sp,0x1
  d0:	0000                	unimp
  d2:	0000                	unimp
  d4:	0200                	addi	s0,sp,256
  d6:	9f30                	0x9f30
  d8:	01065c07          	0x1065c07
  dc:	0000                	unimp
  de:	0000                	unimp
  e0:	6600                	ld	s0,8(a2)
  e2:	0106                	slli	sp,sp,0x1
  e4:	0000                	unimp
  e6:	0000                	unimp
  e8:	0100                	addi	s0,sp,128
  ea:	0759                	addi	a4,a4,22
  ec:	0666                	slli	a2,a2,0x19
  ee:	0001                	nop
  f0:	0000                	unimp
  f2:	0000                	unimp
  f4:	0668                	addi	a0,sp,780
  f6:	0001                	nop
  f8:	0000                	unimp
  fa:	0000                	unimp
  fc:	9f7f7903          	0x9f7f7903
 100:	01066807          	0x1066807
 104:	0000                	unimp
 106:	0000                	unimp
 108:	6e00                	ld	s0,24(a2)
 10a:	0106                	slli	sp,sp,0x1
 10c:	0000                	unimp
 10e:	0000                	unimp
 110:	0100                	addi	s0,sp,128
 112:	0059                	c.nop	22
