
Test_Instructions.o:     file format elf64-littleriscv


Disassembly of section .text:

0000000000000000 <main>:
   0:	00000113          	li	sp,0
   4:	13c000ef          	jal	ra,140 <addi_inst>
   8:	00810113          	addi	sp,sp,8
   c:	158000ef          	jal	ra,164 <slti_inst>
  10:	00810113          	addi	sp,sp,8
  14:	170000ef          	jal	ra,184 <andi_inst>
  18:	00810113          	addi	sp,sp,8
  1c:	190000ef          	jal	ra,1ac <ori_inst>
  20:	00810113          	addi	sp,sp,8
  24:	1b0000ef          	jal	ra,1d4 <xori_inst>
  28:	00810113          	addi	sp,sp,8
  2c:	1d0000ef          	jal	ra,1fc <sltiu_inst>
  30:	00810113          	addi	sp,sp,8
  34:	1e8000ef          	jal	ra,21c <slli_inst>
  38:	00810113          	addi	sp,sp,8
  3c:	208000ef          	jal	ra,244 <srli_inst>
  40:	00810113          	addi	sp,sp,8
  44:	228000ef          	jal	ra,26c <srai_inst>
  48:	00810113          	addi	sp,sp,8
  4c:	248000ef          	jal	ra,294 <lui_inst>
  50:	00810113          	addi	sp,sp,8
  54:	268000ef          	jal	ra,2bc <add_inst>
  58:	00810113          	addi	sp,sp,8
  5c:	28c000ef          	jal	ra,2e8 <slt_inst>
  60:	00810113          	addi	sp,sp,8
  64:	2b0000ef          	jal	ra,314 <sltu_inst>
  68:	00810113          	addi	sp,sp,8
  6c:	2d4000ef          	jal	ra,340 <and_inst>
  70:	00810113          	addi	sp,sp,8
  74:	2f8000ef          	jal	ra,36c <or_inst>
  78:	00810113          	addi	sp,sp,8
  7c:	31c000ef          	jal	ra,398 <xor_inst>
  80:	00810113          	addi	sp,sp,8
  84:	340000ef          	jal	ra,3c4 <sll_inst>
  88:	00810113          	addi	sp,sp,8
  8c:	364000ef          	jal	ra,3f0 <srl_inst>
  90:	00810113          	addi	sp,sp,8
  94:	388000ef          	jal	ra,41c <sub_inst>
  98:	00810113          	addi	sp,sp,8
  9c:	3ac000ef          	jal	ra,448 <sra_inst>
  a0:	00810113          	addi	sp,sp,8
  a4:	3d0000ef          	jal	ra,474 <fadd_s_inst>
  a8:	00810113          	addi	sp,sp,8
  ac:	3fc000ef          	jal	ra,4a8 <fsub_s_inst>
  b0:	00810113          	addi	sp,sp,8
  b4:	428000ef          	jal	ra,4dc <fmul_s_inst>
  b8:	00810113          	addi	sp,sp,8
  bc:	454000ef          	jal	ra,510 <fdiv_s_inst>
  c0:	00810113          	addi	sp,sp,8
  c4:	480000ef          	jal	ra,544 <fmin_s_inst>
  c8:	00810113          	addi	sp,sp,8
  cc:	4ac000ef          	jal	ra,578 <fmax_s_inst>
  d0:	00810113          	addi	sp,sp,8
  d4:	4d8000ef          	jal	ra,5ac <fcvt_w_s_inst>
  d8:	00810113          	addi	sp,sp,8
  dc:	500000ef          	jal	ra,5dc <fcvt_s_w_inst>
  e0:	00810113          	addi	sp,sp,8
  e4:	524000ef          	jal	ra,608 <fcvt_l_s_inst>
  e8:	00810113          	addi	sp,sp,8
  ec:	54c000ef          	jal	ra,638 <fcvt_s_l_inst>
  f0:	00810113          	addi	sp,sp,8
  f4:	570000ef          	jal	ra,664 <fsgnj_s_inst>
  f8:	00810113          	addi	sp,sp,8
  fc:	5ac000ef          	jal	ra,6a8 <fsgnjn_s_inst>
 100:	00810113          	addi	sp,sp,8
 104:	5e8000ef          	jal	ra,6ec <fsgnjx_s_inst>
 108:	00810113          	addi	sp,sp,8
 10c:	624000ef          	jal	ra,730 <feq_s_inst>
 110:	00810113          	addi	sp,sp,8
 114:	650000ef          	jal	ra,764 <flt_s_inst>
 118:	00810113          	addi	sp,sp,8
 11c:	66c000ef          	jal	ra,788 <fle_s_inst>
 120:	02400293          	li	t0,36
 124:	00000113          	li	sp,0

0000000000000128 <loop>:
 128:	00013303          	ld	t1,0(sp)
 12c:	68028063          	beqz	t0,7ac <HALT>
 130:	fff28293          	addi	t0,t0,-1
 134:	00810113          	addi	sp,sp,8
 138:	ff1ff06f          	j	128 <loop>
 13c:	6700006f          	j	7ac <HALT>

0000000000000140 <addi_inst>:
 140:	07b00313          	li	t1,123
 144:	07b00393          	li	t2,123
 148:	00730463          	beq	t1,t2,150 <addi_inst_true>
 14c:	0100006f          	j	15c <addi_inst_false>

0000000000000150 <addi_inst_true>:
 150:	00100293          	li	t0,1
 154:	00513023          	sd	t0,0(sp)
 158:	0080006f          	j	160 <addi_inst_ret>

000000000000015c <addi_inst_false>:
 15c:	00013023          	sd	zero,0(sp)

0000000000000160 <addi_inst_ret>:
 160:	00008067          	ret

0000000000000164 <slti_inst>:
 164:	07800313          	li	t1,120
 168:	07b32293          	slti	t0,t1,123
 16c:	00513023          	sd	t0,0(sp)
 170:	00810113          	addi	sp,sp,8
 174:	0ff00313          	li	t1,255
 178:	07b32293          	slti	t0,t1,123
 17c:	00513023          	sd	t0,0(sp)
 180:	00008067          	ret

0000000000000184 <andi_inst>:
 184:	07b00313          	li	t1,123
 188:	1c837393          	andi	t2,t1,456
 18c:	04800e13          	li	t3,72
 190:	01c38463          	beq	t2,t3,198 <andi_inst_true>
 194:	0100006f          	j	1a4 <andi_inst_false>

0000000000000198 <andi_inst_true>:
 198:	00100293          	li	t0,1
 19c:	00513023          	sd	t0,0(sp)
 1a0:	0080006f          	j	1a8 <andi_inst_ret>

00000000000001a4 <andi_inst_false>:
 1a4:	00013023          	sd	zero,0(sp)

00000000000001a8 <andi_inst_ret>:
 1a8:	00008067          	ret

00000000000001ac <ori_inst>:
 1ac:	07b00313          	li	t1,123
 1b0:	1c836393          	ori	t2,t1,456
 1b4:	1fb00e13          	li	t3,507
 1b8:	01c38463          	beq	t2,t3,1c0 <ori_inst_true>
 1bc:	0100006f          	j	1cc <ori_inst_false>

00000000000001c0 <ori_inst_true>:
 1c0:	00100293          	li	t0,1
 1c4:	00513023          	sd	t0,0(sp)
 1c8:	0080006f          	j	1d0 <ori_inst_ret>

00000000000001cc <ori_inst_false>:
 1cc:	00013023          	sd	zero,0(sp)

00000000000001d0 <ori_inst_ret>:
 1d0:	00008067          	ret

00000000000001d4 <xori_inst>:
 1d4:	07b00313          	li	t1,123
 1d8:	1c834393          	xori	t2,t1,456
 1dc:	1b300e13          	li	t3,435
 1e0:	01c38463          	beq	t2,t3,1e8 <xori_inst_true>
 1e4:	0100006f          	j	1f4 <xori_inst_false>

00000000000001e8 <xori_inst_true>:
 1e8:	00100293          	li	t0,1
 1ec:	00513023          	sd	t0,0(sp)
 1f0:	0080006f          	j	1f8 <xori_inst_ret>

00000000000001f4 <xori_inst_false>:
 1f4:	00013023          	sd	zero,0(sp)

00000000000001f8 <xori_inst_ret>:
 1f8:	00008067          	ret

00000000000001fc <sltiu_inst>:
 1fc:	07800313          	li	t1,120
 200:	07b32293          	slti	t0,t1,123
 204:	00513023          	sd	t0,0(sp)
 208:	00810113          	addi	sp,sp,8
 20c:	0ff00313          	li	t1,255
 210:	07b32293          	slti	t0,t1,123
 214:	00513023          	sd	t0,0(sp)
 218:	00008067          	ret

000000000000021c <slli_inst>:
 21c:	00100313          	li	t1,1
 220:	00331393          	slli	t2,t1,0x3
 224:	00800e13          	li	t3,8
 228:	01c38463          	beq	t2,t3,230 <slli_inst_true>
 22c:	0100006f          	j	23c <slli_inst_false>

0000000000000230 <slli_inst_true>:
 230:	00100293          	li	t0,1
 234:	00513023          	sd	t0,0(sp)
 238:	0080006f          	j	240 <slli_inst_ret>

000000000000023c <slli_inst_false>:
 23c:	00013023          	sd	zero,0(sp)

0000000000000240 <slli_inst_ret>:
 240:	00008067          	ret

0000000000000244 <srli_inst>:
 244:	01000313          	li	t1,16
 248:	00335393          	srli	t2,t1,0x3
 24c:	00200e13          	li	t3,2
 250:	01c38463          	beq	t2,t3,258 <srli_inst_true>
 254:	0100006f          	j	264 <srli_inst_false>

0000000000000258 <srli_inst_true>:
 258:	00100293          	li	t0,1
 25c:	00513023          	sd	t0,0(sp)
 260:	0080006f          	j	268 <srli_inst_ret>

0000000000000264 <srli_inst_false>:
 264:	00013023          	sd	zero,0(sp)

0000000000000268 <srli_inst_ret>:
 268:	00008067          	ret

000000000000026c <srai_inst>:
 26c:	ff000313          	li	t1,-16
 270:	40335393          	srai	t2,t1,0x3
 274:	ffe00e13          	li	t3,-2
 278:	01c38463          	beq	t2,t3,280 <srai_inst_true>
 27c:	0100006f          	j	28c <srai_inst_false>

0000000000000280 <srai_inst_true>:
 280:	00100293          	li	t0,1
 284:	00513023          	sd	t0,0(sp)
 288:	0080006f          	j	290 <srai_inst_ret>

000000000000028c <srai_inst_false>:
 28c:	00013023          	sd	zero,0(sp)

0000000000000290 <srai_inst_ret>:
 290:	00008067          	ret

0000000000000294 <lui_inst>:
 294:	00001337          	lui	t1,0x1
 298:	00100393          	li	t2,1
 29c:	00c39393          	slli	t2,t2,0xc
 2a0:	00730463          	beq	t1,t2,2a8 <lui_inst_true>
 2a4:	0100006f          	j	2b4 <lui_inst_false>

00000000000002a8 <lui_inst_true>:
 2a8:	00100293          	li	t0,1
 2ac:	00513023          	sd	t0,0(sp)
 2b0:	0080006f          	j	2b8 <lui_inst_ret>

00000000000002b4 <lui_inst_false>:
 2b4:	00013023          	sd	zero,0(sp)

00000000000002b8 <lui_inst_ret>:
 2b8:	00008067          	ret

00000000000002bc <add_inst>:
 2bc:	07b00313          	li	t1,123
 2c0:	1c800393          	li	t2,456
 2c4:	00730e33          	add	t3,t1,t2
 2c8:	24300e93          	li	t4,579
 2cc:	01de0463          	beq	t3,t4,2d4 <add_inst_true>
 2d0:	0100006f          	j	2e0 <add_inst_false>

00000000000002d4 <add_inst_true>:
 2d4:	00100293          	li	t0,1
 2d8:	00513023          	sd	t0,0(sp)
 2dc:	0080006f          	j	2e4 <add_inst_ret>

00000000000002e0 <add_inst_false>:
 2e0:	00013023          	sd	zero,0(sp)

00000000000002e4 <add_inst_ret>:
 2e4:	00008067          	ret

00000000000002e8 <slt_inst>:
 2e8:	07b00313          	li	t1,123
 2ec:	1c800393          	li	t2,456
 2f0:	00732e33          	slt	t3,t1,t2
 2f4:	00100e93          	li	t4,1
 2f8:	01de0463          	beq	t3,t4,300 <slt_inst_true>
 2fc:	0100006f          	j	30c <slt_inst_false>

0000000000000300 <slt_inst_true>:
 300:	00100293          	li	t0,1
 304:	00513023          	sd	t0,0(sp)
 308:	0080006f          	j	310 <slt_inst_ret>

000000000000030c <slt_inst_false>:
 30c:	00013023          	sd	zero,0(sp)

0000000000000310 <slt_inst_ret>:
 310:	00008067          	ret

0000000000000314 <sltu_inst>:
 314:	07b00313          	li	t1,123
 318:	1c800393          	li	t2,456
 31c:	00732e33          	slt	t3,t1,t2
 320:	00100e93          	li	t4,1
 324:	01de0463          	beq	t3,t4,32c <sltu_inst_true>
 328:	0100006f          	j	338 <sltu_inst_false>

000000000000032c <sltu_inst_true>:
 32c:	00100293          	li	t0,1
 330:	00513023          	sd	t0,0(sp)
 334:	0080006f          	j	33c <sltu_inst_ret>

0000000000000338 <sltu_inst_false>:
 338:	00013023          	sd	zero,0(sp)

000000000000033c <sltu_inst_ret>:
 33c:	00008067          	ret

0000000000000340 <and_inst>:
 340:	07b00313          	li	t1,123
 344:	2a600393          	li	t2,678
 348:	00737e33          	and	t3,t1,t2
 34c:	02200e93          	li	t4,34
 350:	01de0463          	beq	t3,t4,358 <and_inst_true>
 354:	0100006f          	j	364 <and_inst_false>

0000000000000358 <and_inst_true>:
 358:	00100293          	li	t0,1
 35c:	00513023          	sd	t0,0(sp)
 360:	0080006f          	j	368 <and_inst_ret>

0000000000000364 <and_inst_false>:
 364:	00013023          	sd	zero,0(sp)

0000000000000368 <and_inst_ret>:
 368:	00008067          	ret

000000000000036c <or_inst>:
 36c:	07b00313          	li	t1,123
 370:	2a600393          	li	t2,678
 374:	00736e33          	or	t3,t1,t2
 378:	2ff00e93          	li	t4,767
 37c:	01de0463          	beq	t3,t4,384 <or_inst_true>
 380:	0100006f          	j	390 <or_inst_false>

0000000000000384 <or_inst_true>:
 384:	00100293          	li	t0,1
 388:	00513023          	sd	t0,0(sp)
 38c:	0080006f          	j	394 <or_inst_ret>

0000000000000390 <or_inst_false>:
 390:	00013023          	sd	zero,0(sp)

0000000000000394 <or_inst_ret>:
 394:	00008067          	ret

0000000000000398 <xor_inst>:
 398:	07b00313          	li	t1,123
 39c:	2a600393          	li	t2,678
 3a0:	00737e33          	and	t3,t1,t2
 3a4:	2dd00e93          	li	t4,733
 3a8:	01de0463          	beq	t3,t4,3b0 <xor_inst_true>
 3ac:	0100006f          	j	3bc <xor_inst_false>

00000000000003b0 <xor_inst_true>:
 3b0:	00100293          	li	t0,1
 3b4:	00513023          	sd	t0,0(sp)
 3b8:	0080006f          	j	3c0 <xor_inst_ret>

00000000000003bc <xor_inst_false>:
 3bc:	00013023          	sd	zero,0(sp)

00000000000003c0 <xor_inst_ret>:
 3c0:	00008067          	ret

00000000000003c4 <sll_inst>:
 3c4:	00100313          	li	t1,1
 3c8:	00300393          	li	t2,3
 3cc:	00731e33          	sll	t3,t1,t2
 3d0:	00800e93          	li	t4,8
 3d4:	01de0463          	beq	t3,t4,3dc <sll_inst_true>
 3d8:	0100006f          	j	3e8 <sll_inst_false>

00000000000003dc <sll_inst_true>:
 3dc:	00100293          	li	t0,1
 3e0:	00513023          	sd	t0,0(sp)
 3e4:	0080006f          	j	3ec <sll_inst_ret>

00000000000003e8 <sll_inst_false>:
 3e8:	00013023          	sd	zero,0(sp)

00000000000003ec <sll_inst_ret>:
 3ec:	00008067          	ret

00000000000003f0 <srl_inst>:
 3f0:	01000313          	li	t1,16
 3f4:	00300393          	li	t2,3
 3f8:	00735e33          	srl	t3,t1,t2
 3fc:	00200e93          	li	t4,2
 400:	01de0463          	beq	t3,t4,408 <srl_inst_true>
 404:	0100006f          	j	414 <srl_inst_false>

0000000000000408 <srl_inst_true>:
 408:	00100293          	li	t0,1
 40c:	00513023          	sd	t0,0(sp)
 410:	0080006f          	j	418 <srl_inst_ret>

0000000000000414 <srl_inst_false>:
 414:	00013023          	sd	zero,0(sp)

0000000000000418 <srl_inst_ret>:
 418:	00008067          	ret

000000000000041c <sub_inst>:
 41c:	07b00313          	li	t1,123
 420:	1c800393          	li	t2,456
 424:	40730e33          	sub	t3,t1,t2
 428:	eb300e93          	li	t4,-333
 42c:	01de0463          	beq	t3,t4,434 <sub_inst_true>
 430:	0100006f          	j	440 <sub_inst_false>

0000000000000434 <sub_inst_true>:
 434:	00100293          	li	t0,1
 438:	00513023          	sd	t0,0(sp)
 43c:	0080006f          	j	444 <sub_inst_ret>

0000000000000440 <sub_inst_false>:
 440:	00013023          	sd	zero,0(sp)

0000000000000444 <sub_inst_ret>:
 444:	00008067          	ret

0000000000000448 <sra_inst>:
 448:	ff000313          	li	t1,-16
 44c:	00300393          	li	t2,3
 450:	40735e33          	sra	t3,t1,t2
 454:	ffe00e93          	li	t4,-2
 458:	01de0463          	beq	t3,t4,460 <sra_inst_true>
 45c:	0100006f          	j	46c <sra_inst_false>

0000000000000460 <sra_inst_true>:
 460:	00100293          	li	t0,1
 464:	00513023          	sd	t0,0(sp)
 468:	0080006f          	j	470 <sra_inst_ret>

000000000000046c <sra_inst_false>:
 46c:	00013023          	sd	zero,0(sp)

0000000000000470 <sra_inst_ret>:
 470:	00008067          	ret

0000000000000474 <fadd_s_inst>:
 474:	42f6f337          	lui	t1,0x42f6f
 478:	9793031b          	addiw	t1,t1,-1671
 47c:	f00300d3          	fmv.w.x	ft1,t1
 480:	414573b7          	lui	t2,0x41457
 484:	0a43839b          	addiw	t2,t2,164
 488:	f0038153          	fmv.w.x	ft2,t2
 48c:	0020f1d3          	fadd.s	ft3,ft1,ft2
 490:	4307deb7          	lui	t4,0x4307d
 494:	bc7e8e9b          	addiw	t4,t4,-1081
 498:	f00e8253          	fmv.w.x	ft4,t4
 49c:	a041a2d3          	feq.s	t0,ft3,ft4
 4a0:	00513023          	sd	t0,0(sp)
 4a4:	00008067          	ret

00000000000004a8 <fsub_s_inst>:
 4a8:	42f6f337          	lui	t1,0x42f6f
 4ac:	9793031b          	addiw	t1,t1,-1671
 4b0:	f00300d3          	fmv.w.x	ft1,t1
 4b4:	414573b7          	lui	t2,0x41457
 4b8:	0a43839b          	addiw	t2,t2,164
 4bc:	f0038153          	fmv.w.x	ft2,t2
 4c0:	0820f1d3          	fsub.s	ft3,ft1,ft2
 4c4:	42de4eb7          	lui	t4,0x42de4
 4c8:	b64e8e9b          	addiw	t4,t4,-1180
 4cc:	f00e8253          	fmv.w.x	ft4,t4
 4d0:	a041a2d3          	feq.s	t0,ft3,ft4
 4d4:	00513023          	sd	t0,0(sp)
 4d8:	00008067          	ret

00000000000004dc <fmul_s_inst>:
 4dc:	42f6f337          	lui	t1,0x42f6f
 4e0:	9793031b          	addiw	t1,t1,-1671
 4e4:	f00300d3          	fmv.w.x	ft1,t1
 4e8:	414573b7          	lui	t2,0x41457
 4ec:	0a43839b          	addiw	t2,t2,164
 4f0:	f0038153          	fmv.w.x	ft2,t2
 4f4:	1020f1d3          	fmul.s	ft3,ft1,ft2
 4f8:	44be7eb7          	lui	t4,0x44be7
 4fc:	e4ee8e9b          	addiw	t4,t4,-434
 500:	f00e8253          	fmv.w.x	ft4,t4
 504:	a041a2d3          	feq.s	t0,ft3,ft4
 508:	00513023          	sd	t0,0(sp)
 50c:	00008067          	ret

0000000000000510 <fdiv_s_inst>:
 510:	42f6f337          	lui	t1,0x42f6f
 514:	9793031b          	addiw	t1,t1,-1671
 518:	f00300d3          	fmv.w.x	ft1,t1
 51c:	414573b7          	lui	t2,0x41457
 520:	0a43839b          	addiw	t2,t2,164
 524:	f0038153          	fmv.w.x	ft2,t2
 528:	1820f1d3          	fdiv.s	ft3,ft1,ft2
 52c:	41201eb7          	lui	t4,0x41201
 530:	297e8e9b          	addiw	t4,t4,663
 534:	f00e8253          	fmv.w.x	ft4,t4
 538:	a041a2d3          	feq.s	t0,ft3,ft4
 53c:	00513023          	sd	t0,0(sp)
 540:	00008067          	ret

0000000000000544 <fmin_s_inst>:
 544:	42f6f337          	lui	t1,0x42f6f
 548:	9793031b          	addiw	t1,t1,-1671
 54c:	f00300d3          	fmv.w.x	ft1,t1
 550:	414573b7          	lui	t2,0x41457
 554:	0a43839b          	addiw	t2,t2,164
 558:	f0038153          	fmv.w.x	ft2,t2
 55c:	282081d3          	fmin.s	ft3,ft1,ft2
 560:	41457eb7          	lui	t4,0x41457
 564:	0a4e8e9b          	addiw	t4,t4,164
 568:	f00e8253          	fmv.w.x	ft4,t4
 56c:	a041a2d3          	feq.s	t0,ft3,ft4
 570:	00513023          	sd	t0,0(sp)
 574:	00008067          	ret

0000000000000578 <fmax_s_inst>:
 578:	42f6f337          	lui	t1,0x42f6f
 57c:	9793031b          	addiw	t1,t1,-1671
 580:	f00300d3          	fmv.w.x	ft1,t1
 584:	414573b7          	lui	t2,0x41457
 588:	0a43839b          	addiw	t2,t2,164
 58c:	f0038153          	fmv.w.x	ft2,t2
 590:	282091d3          	fmax.s	ft3,ft1,ft2
 594:	42f6feb7          	lui	t4,0x42f6f
 598:	979e8e9b          	addiw	t4,t4,-1671
 59c:	f00e8253          	fmv.w.x	ft4,t4
 5a0:	a041a2d3          	feq.s	t0,ft3,ft4
 5a4:	00513023          	sd	t0,0(sp)
 5a8:	00008067          	ret

00000000000005ac <fcvt_w_s_inst>:
 5ac:	41291337          	lui	t1,0x41291
 5b0:	6143031b          	addiw	t1,t1,1556
 5b4:	f00300d3          	fmv.w.x	ft1,t1
 5b8:	c000fe53          	fcvt.w.s	t3,ft1
 5bc:	00a00393          	li	t2,10
 5c0:	01c38463          	beq	t2,t3,5c8 <fcvt_w_s_inst_true>
 5c4:	0100006f          	j	5d4 <fcvt_w_s_inst_false>

00000000000005c8 <fcvt_w_s_inst_true>:
 5c8:	00100293          	li	t0,1
 5cc:	00513023          	sd	t0,0(sp)
 5d0:	0080006f          	j	5d8 <fcvt_w_s_inst_ret>

00000000000005d4 <fcvt_w_s_inst_false>:
 5d4:	00013023          	sd	zero,0(sp)

00000000000005d8 <fcvt_w_s_inst_ret>:
 5d8:	00008067          	ret

00000000000005dc <fcvt_s_w_inst>:
 5dc:	07b00313          	li	t1,123
 5e0:	d00370d3          	fcvt.s.w	ft1,t1
 5e4:	e00083d3          	fmv.x.w	t2,ft1
 5e8:	42f60e37          	lui	t3,0x42f60
 5ec:	01c38463          	beq	t2,t3,5f4 <fcvt_s_w_inst_true>
 5f0:	0100006f          	j	600 <fcvt_s_w_inst_false>

00000000000005f4 <fcvt_s_w_inst_true>:
 5f4:	00100293          	li	t0,1
 5f8:	00513023          	sd	t0,0(sp)
 5fc:	0080006f          	j	604 <fcvt_s_w_inst_ret>

0000000000000600 <fcvt_s_w_inst_false>:
 600:	00013023          	sd	zero,0(sp)

0000000000000604 <fcvt_s_w_inst_ret>:
 604:	00008067          	ret

0000000000000608 <fcvt_l_s_inst>:
 608:	41291337          	lui	t1,0x41291
 60c:	6143031b          	addiw	t1,t1,1556
 610:	f00300d3          	fmv.w.x	ft1,t1
 614:	c020fe53          	fcvt.l.s	t3,ft1
 618:	00a00393          	li	t2,10
 61c:	01c38463          	beq	t2,t3,624 <fcvt_l_s_inst_true>
 620:	0100006f          	j	630 <fcvt_l_s_inst_false>

0000000000000624 <fcvt_l_s_inst_true>:
 624:	00100293          	li	t0,1
 628:	00513023          	sd	t0,0(sp)
 62c:	0080006f          	j	634 <fcvt_l_s_inst_ret>

0000000000000630 <fcvt_l_s_inst_false>:
 630:	00013023          	sd	zero,0(sp)

0000000000000634 <fcvt_l_s_inst_ret>:
 634:	00008067          	ret

0000000000000638 <fcvt_s_l_inst>:
 638:	07b00313          	li	t1,123
 63c:	d02370d3          	fcvt.s.l	ft1,t1
 640:	e00083d3          	fmv.x.w	t2,ft1
 644:	42f60e37          	lui	t3,0x42f60
 648:	01c38463          	beq	t2,t3,650 <fcvt_s_l_inst_true>
 64c:	0100006f          	j	65c <fcvt_s_l_inst_false>

0000000000000650 <fcvt_s_l_inst_true>:
 650:	00100293          	li	t0,1
 654:	00513023          	sd	t0,0(sp)
 658:	0080006f          	j	660 <fcvt_s_l_inst_ret>

000000000000065c <fcvt_s_l_inst_false>:
 65c:	00013023          	sd	zero,0(sp)

0000000000000660 <fcvt_s_l_inst_ret>:
 660:	00008067          	ret

0000000000000664 <fsgnj_s_inst>:
 664:	4212b337          	lui	t1,0x4212b
 668:	3cb3031b          	addiw	t1,t1,971
 66c:	f00300d3          	fmv.w.x	ft1,t1
 670:	000c33b7          	lui	t2,0xc3
 674:	f6b3839b          	addiw	t2,t2,-149
 678:	00c39393          	slli	t2,t2,0xc
 67c:	18038393          	addi	t2,t2,384 # c3180 <HALT+0xc29d4>
 680:	f0038153          	fmv.w.x	ft2,t2
 684:	000c2e37          	lui	t3,0xc2
 688:	12be0e1b          	addiw	t3,t3,299
 68c:	00ce1e13          	slli	t3,t3,0xc
 690:	3cbe0e13          	addi	t3,t3,971 # c23cb <HALT+0xc1c1f>
 694:	f00e01d3          	fmv.w.x	ft3,t3
 698:	20208253          	fsgnj.s	ft4,ft1,ft2
 69c:	a041a2d3          	feq.s	t0,ft3,ft4
 6a0:	00513023          	sd	t0,0(sp)
 6a4:	00008067          	ret

00000000000006a8 <fsgnjn_s_inst>:
 6a8:	4212b337          	lui	t1,0x4212b
 6ac:	3cb3031b          	addiw	t1,t1,971
 6b0:	f00300d3          	fmv.w.x	ft1,t1
 6b4:	000c33b7          	lui	t2,0xc3
 6b8:	f6b3839b          	addiw	t2,t2,-149
 6bc:	00c39393          	slli	t2,t2,0xc
 6c0:	18038393          	addi	t2,t2,384 # c3180 <HALT+0xc29d4>
 6c4:	f0038153          	fmv.w.x	ft2,t2
 6c8:	000c2e37          	lui	t3,0xc2
 6cc:	12be0e1b          	addiw	t3,t3,299
 6d0:	00ce1e13          	slli	t3,t3,0xc
 6d4:	3cbe0e13          	addi	t3,t3,971 # c23cb <HALT+0xc1c1f>
 6d8:	f00e01d3          	fmv.w.x	ft3,t3
 6dc:	20209253          	fsgnjn.s	ft4,ft1,ft2
 6e0:	a041a2d3          	feq.s	t0,ft3,ft4
 6e4:	00513023          	sd	t0,0(sp)
 6e8:	00008067          	ret

00000000000006ec <fsgnjx_s_inst>:
 6ec:	4212b337          	lui	t1,0x4212b
 6f0:	3cb3031b          	addiw	t1,t1,971
 6f4:	f00300d3          	fmv.w.x	ft1,t1
 6f8:	000c33b7          	lui	t2,0xc3
 6fc:	f6b3839b          	addiw	t2,t2,-149
 700:	00c39393          	slli	t2,t2,0xc
 704:	18038393          	addi	t2,t2,384 # c3180 <HALT+0xc29d4>
 708:	f0038153          	fmv.w.x	ft2,t2
 70c:	000c2e37          	lui	t3,0xc2
 710:	12be0e1b          	addiw	t3,t3,299
 714:	00ce1e13          	slli	t3,t3,0xc
 718:	3cbe0e13          	addi	t3,t3,971 # c23cb <HALT+0xc1c1f>
 71c:	f00e01d3          	fmv.w.x	ft3,t3
 720:	2020a253          	fsgnjx.s	ft4,ft1,ft2
 724:	a041a2d3          	feq.s	t0,ft3,ft4
 728:	00513023          	sd	t0,0(sp)
 72c:	00008067          	ret

0000000000000730 <feq_s_inst>:
 730:	41457337          	lui	t1,0x41457
 734:	0a43031b          	addiw	t1,t1,164
 738:	f00300d3          	fmv.w.x	ft1,t1
 73c:	42f6f3b7          	lui	t2,0x42f6f
 740:	9793839b          	addiw	t2,t2,-1671
 744:	f0038153          	fmv.w.x	ft2,t2
 748:	a020a2d3          	feq.s	t0,ft1,ft2
 74c:	00028463          	beqz	t0,754 <feq_s_inst_true>
 750:	00c0006f          	j	75c <feq_s_inst_false>

0000000000000754 <feq_s_inst_true>:
 754:	00100293          	li	t0,1
 758:	00513023          	sd	t0,0(sp)

000000000000075c <feq_s_inst_false>:
 75c:	00013023          	sd	zero,0(sp)

0000000000000760 <feq_s_inst_ret>:
 760:	00008067          	ret

0000000000000764 <flt_s_inst>:
 764:	41457337          	lui	t1,0x41457
 768:	0a43031b          	addiw	t1,t1,164
 76c:	f00300d3          	fmv.w.x	ft1,t1
 770:	42f6f3b7          	lui	t2,0x42f6f
 774:	9793839b          	addiw	t2,t2,-1671
 778:	f0038153          	fmv.w.x	ft2,t2
 77c:	a02092d3          	flt.s	t0,ft1,ft2
 780:	00513023          	sd	t0,0(sp)
 784:	00008067          	ret

0000000000000788 <fle_s_inst>:
 788:	41457337          	lui	t1,0x41457
 78c:	0a43031b          	addiw	t1,t1,164
 790:	f00300d3          	fmv.w.x	ft1,t1
 794:	42f6f3b7          	lui	t2,0x42f6f
 798:	9793839b          	addiw	t2,t2,-1671
 79c:	f0038153          	fmv.w.x	ft2,t2
 7a0:	a02082d3          	fle.s	t0,ft1,ft2
 7a4:	00513023          	sd	t0,0(sp)
 7a8:	00008067          	ret
